Archive member included to satisfy reference by file (symbol)

/root/edk2/Build/OvmfX64/RELEASE_GCC5/X64/MdePkg/Library/DxePcdLib/DxePcdLib/OUTPUT/DxePcdLib.lib(DxePcdLib.obj)
                              (--whole-archive)
/root/edk2/Build/OvmfX64/RELEASE_GCC5/X64/MdePkg/Library/BaseLib/BaseLib/OUTPUT/BaseLib.lib(CheckSum.obj)
                              (--whole-archive)
/root/edk2/Build/OvmfX64/RELEASE_GCC5/X64/MdePkg/Library/BaseLib/BaseLib/OUTPUT/BaseLib.lib(SwitchStack.obj)
                              (--whole-archive)
/root/edk2/Build/OvmfX64/RELEASE_GCC5/X64/MdePkg/Library/BaseLib/BaseLib/OUTPUT/BaseLib.lib(SwapBytes64.obj)
                              (--whole-archive)
/root/edk2/Build/OvmfX64/RELEASE_GCC5/X64/MdePkg/Library/BaseLib/BaseLib/OUTPUT/BaseLib.lib(SwapBytes32.obj)
                              (--whole-archive)
/root/edk2/Build/OvmfX64/RELEASE_GCC5/X64/MdePkg/Library/BaseLib/BaseLib/OUTPUT/BaseLib.lib(SwapBytes16.obj)
                              (--whole-archive)
/root/edk2/Build/OvmfX64/RELEASE_GCC5/X64/MdePkg/Library/BaseLib/BaseLib/OUTPUT/BaseLib.lib(LongJump.obj)
                              (--whole-archive)
/root/edk2/Build/OvmfX64/RELEASE_GCC5/X64/MdePkg/Library/BaseLib/BaseLib/OUTPUT/BaseLib.lib(SetJump.obj)
                              (--whole-archive)
/root/edk2/Build/OvmfX64/RELEASE_GCC5/X64/MdePkg/Library/BaseLib/BaseLib/OUTPUT/BaseLib.lib(RShiftU64.obj)
                              (--whole-archive)
/root/edk2/Build/OvmfX64/RELEASE_GCC5/X64/MdePkg/Library/BaseLib/BaseLib/OUTPUT/BaseLib.lib(RRotU64.obj)
                              (--whole-archive)
/root/edk2/Build/OvmfX64/RELEASE_GCC5/X64/MdePkg/Library/BaseLib/BaseLib/OUTPUT/BaseLib.lib(RRotU32.obj)
                              (--whole-archive)
/root/edk2/Build/OvmfX64/RELEASE_GCC5/X64/MdePkg/Library/BaseLib/BaseLib/OUTPUT/BaseLib.lib(MultU64x64.obj)
                              (--whole-archive)
/root/edk2/Build/OvmfX64/RELEASE_GCC5/X64/MdePkg/Library/BaseLib/BaseLib/OUTPUT/BaseLib.lib(MultU64x32.obj)
                              (--whole-archive)
/root/edk2/Build/OvmfX64/RELEASE_GCC5/X64/MdePkg/Library/BaseLib/BaseLib/OUTPUT/BaseLib.lib(MultS64x64.obj)
                              (--whole-archive)
/root/edk2/Build/OvmfX64/RELEASE_GCC5/X64/MdePkg/Library/BaseLib/BaseLib/OUTPUT/BaseLib.lib(ModU64x32.obj)
                              (--whole-archive)
/root/edk2/Build/OvmfX64/RELEASE_GCC5/X64/MdePkg/Library/BaseLib/BaseLib/OUTPUT/BaseLib.lib(LShiftU64.obj)
                              (--whole-archive)
/root/edk2/Build/OvmfX64/RELEASE_GCC5/X64/MdePkg/Library/BaseLib/BaseLib/OUTPUT/BaseLib.lib(LRotU64.obj)
                              (--whole-archive)
/root/edk2/Build/OvmfX64/RELEASE_GCC5/X64/MdePkg/Library/BaseLib/BaseLib/OUTPUT/BaseLib.lib(LRotU32.obj)
                              (--whole-archive)
/root/edk2/Build/OvmfX64/RELEASE_GCC5/X64/MdePkg/Library/BaseLib/BaseLib/OUTPUT/BaseLib.lib(LowBitSet64.obj)
                              (--whole-archive)
/root/edk2/Build/OvmfX64/RELEASE_GCC5/X64/MdePkg/Library/BaseLib/BaseLib/OUTPUT/BaseLib.lib(LowBitSet32.obj)
                              (--whole-archive)
/root/edk2/Build/OvmfX64/RELEASE_GCC5/X64/MdePkg/Library/BaseLib/BaseLib/OUTPUT/BaseLib.lib(HighBitSet64.obj)
                              (--whole-archive)
/root/edk2/Build/OvmfX64/RELEASE_GCC5/X64/MdePkg/Library/BaseLib/BaseLib/OUTPUT/BaseLib.lib(HighBitSet32.obj)
                              (--whole-archive)
/root/edk2/Build/OvmfX64/RELEASE_GCC5/X64/MdePkg/Library/BaseLib/BaseLib/OUTPUT/BaseLib.lib(GetPowerOfTwo64.obj)
                              (--whole-archive)
/root/edk2/Build/OvmfX64/RELEASE_GCC5/X64/MdePkg/Library/BaseLib/BaseLib/OUTPUT/BaseLib.lib(GetPowerOfTwo32.obj)
                              (--whole-archive)
/root/edk2/Build/OvmfX64/RELEASE_GCC5/X64/MdePkg/Library/BaseLib/BaseLib/OUTPUT/BaseLib.lib(DivU64x64Remainder.obj)
                              (--whole-archive)
/root/edk2/Build/OvmfX64/RELEASE_GCC5/X64/MdePkg/Library/BaseLib/BaseLib/OUTPUT/BaseLib.lib(DivU64x32Remainder.obj)
                              (--whole-archive)
/root/edk2/Build/OvmfX64/RELEASE_GCC5/X64/MdePkg/Library/BaseLib/BaseLib/OUTPUT/BaseLib.lib(DivU64x32.obj)
                              (--whole-archive)
/root/edk2/Build/OvmfX64/RELEASE_GCC5/X64/MdePkg/Library/BaseLib/BaseLib/OUTPUT/BaseLib.lib(DivS64x64Remainder.obj)
                              (--whole-archive)
/root/edk2/Build/OvmfX64/RELEASE_GCC5/X64/MdePkg/Library/BaseLib/BaseLib/OUTPUT/BaseLib.lib(ARShiftU64.obj)
                              (--whole-archive)
/root/edk2/Build/OvmfX64/RELEASE_GCC5/X64/MdePkg/Library/BaseLib/BaseLib/OUTPUT/BaseLib.lib(BitField.obj)
                              (--whole-archive)
/root/edk2/Build/OvmfX64/RELEASE_GCC5/X64/MdePkg/Library/BaseLib/BaseLib/OUTPUT/BaseLib.lib(CpuDeadLoop.obj)
                              (--whole-archive)
/root/edk2/Build/OvmfX64/RELEASE_GCC5/X64/MdePkg/Library/BaseLib/BaseLib/OUTPUT/BaseLib.lib(Cpu.obj)
                              (--whole-archive)
/root/edk2/Build/OvmfX64/RELEASE_GCC5/X64/MdePkg/Library/BaseLib/BaseLib/OUTPUT/BaseLib.lib(LinkedList.obj)
                              (--whole-archive)
/root/edk2/Build/OvmfX64/RELEASE_GCC5/X64/MdePkg/Library/BaseLib/BaseLib/OUTPUT/BaseLib.lib(SafeString.obj)
                              (--whole-archive)
/root/edk2/Build/OvmfX64/RELEASE_GCC5/X64/MdePkg/Library/BaseLib/BaseLib/OUTPUT/BaseLib.lib(String.obj)
                              (--whole-archive)
/root/edk2/Build/OvmfX64/RELEASE_GCC5/X64/MdePkg/Library/BaseLib/BaseLib/OUTPUT/BaseLib.lib(FilePaths.obj)
                              (--whole-archive)
/root/edk2/Build/OvmfX64/RELEASE_GCC5/X64/MdePkg/Library/BaseLib/BaseLib/OUTPUT/BaseLib.lib(Thunk16.obj)
                              (--whole-archive)
/root/edk2/Build/OvmfX64/RELEASE_GCC5/X64/MdePkg/Library/BaseLib/BaseLib/OUTPUT/BaseLib.lib(WriteTr.obj)
                              (--whole-archive)
/root/edk2/Build/OvmfX64/RELEASE_GCC5/X64/MdePkg/Library/BaseLib/BaseLib/OUTPUT/BaseLib.lib(Non-existing.obj)
                              (--whole-archive)
/root/edk2/Build/OvmfX64/RELEASE_GCC5/X64/MdePkg/Library/BaseLib/BaseLib/OUTPUT/BaseLib.lib(Math64.obj)
                              (--whole-archive)
/root/edk2/Build/OvmfX64/RELEASE_GCC5/X64/MdePkg/Library/BaseLib/BaseLib/OUTPUT/BaseLib.lib(Unaligned.obj)
                              (--whole-archive)
/root/edk2/Build/OvmfX64/RELEASE_GCC5/X64/MdePkg/Library/BaseLib/BaseLib/OUTPUT/BaseLib.lib(X86WriteIdtr.obj)
                              (--whole-archive)
/root/edk2/Build/OvmfX64/RELEASE_GCC5/X64/MdePkg/Library/BaseLib/BaseLib/OUTPUT/BaseLib.lib(X86WriteGdtr.obj)
                              (--whole-archive)
/root/edk2/Build/OvmfX64/RELEASE_GCC5/X64/MdePkg/Library/BaseLib/BaseLib/OUTPUT/BaseLib.lib(X86Thunk.obj)
                              (--whole-archive)
/root/edk2/Build/OvmfX64/RELEASE_GCC5/X64/MdePkg/Library/BaseLib/BaseLib/OUTPUT/BaseLib.lib(X86ReadIdtr.obj)
                              (--whole-archive)
/root/edk2/Build/OvmfX64/RELEASE_GCC5/X64/MdePkg/Library/BaseLib/BaseLib/OUTPUT/BaseLib.lib(X86ReadGdtr.obj)
                              (--whole-archive)
/root/edk2/Build/OvmfX64/RELEASE_GCC5/X64/MdePkg/Library/BaseLib/BaseLib/OUTPUT/BaseLib.lib(X86Msr.obj)
                              (--whole-archive)
/root/edk2/Build/OvmfX64/RELEASE_GCC5/X64/MdePkg/Library/BaseLib/BaseLib/OUTPUT/BaseLib.lib(X86GetInterruptState.obj)
                              (--whole-archive)
/root/edk2/Build/OvmfX64/RELEASE_GCC5/X64/MdePkg/Library/BaseLib/BaseLib/OUTPUT/BaseLib.lib(X86FxSave.obj)
                              (--whole-archive)
/root/edk2/Build/OvmfX64/RELEASE_GCC5/X64/MdePkg/Library/BaseLib/BaseLib/OUTPUT/BaseLib.lib(X86FxRestore.obj)
                              (--whole-archive)
/root/edk2/Build/OvmfX64/RELEASE_GCC5/X64/MdePkg/Library/BaseLib/BaseLib/OUTPUT/BaseLib.lib(X86EnablePaging64.obj)
                              (--whole-archive)
/root/edk2/Build/OvmfX64/RELEASE_GCC5/X64/MdePkg/Library/BaseLib/BaseLib/OUTPUT/BaseLib.lib(X86EnablePaging32.obj)
                              (--whole-archive)
/root/edk2/Build/OvmfX64/RELEASE_GCC5/X64/MdePkg/Library/BaseLib/BaseLib/OUTPUT/BaseLib.lib(X86DisablePaging64.obj)
                              (--whole-archive)
/root/edk2/Build/OvmfX64/RELEASE_GCC5/X64/MdePkg/Library/BaseLib/BaseLib/OUTPUT/BaseLib.lib(X86DisablePaging32.obj)
                              (--whole-archive)
/root/edk2/Build/OvmfX64/RELEASE_GCC5/X64/MdePkg/Library/BaseLib/BaseLib/OUTPUT/BaseLib.lib(X86RdRand.obj)
                              (--whole-archive)
/root/edk2/Build/OvmfX64/RELEASE_GCC5/X64/MdePkg/Library/BaseLib/BaseLib/OUTPUT/BaseLib.lib(GccInline.obj)
                              (--whole-archive)
/root/edk2/Build/OvmfX64/RELEASE_GCC5/X64/MdePkg/Library/BaseLib/BaseLib/OUTPUT/BaseLib.lib(SwitchStack.obj)
                              (--whole-archive)
/root/edk2/Build/OvmfX64/RELEASE_GCC5/X64/MdePkg/Library/BaseLib/BaseLib/OUTPUT/BaseLib.lib(SetJump.obj)
                              (--whole-archive)
/root/edk2/Build/OvmfX64/RELEASE_GCC5/X64/MdePkg/Library/BaseLib/BaseLib/OUTPUT/BaseLib.lib(LongJump.obj)
                              (--whole-archive)
/root/edk2/Build/OvmfX64/RELEASE_GCC5/X64/MdePkg/Library/BaseLib/BaseLib/OUTPUT/BaseLib.lib(EnableDisableInterrupts.obj)
                              (--whole-archive)
/root/edk2/Build/OvmfX64/RELEASE_GCC5/X64/MdePkg/Library/BaseLib/BaseLib/OUTPUT/BaseLib.lib(DisablePaging64.obj)
                              (--whole-archive)
/root/edk2/Build/OvmfX64/RELEASE_GCC5/X64/MdePkg/Library/BaseLib/BaseLib/OUTPUT/BaseLib.lib(CpuId.obj)
                              (--whole-archive)
/root/edk2/Build/OvmfX64/RELEASE_GCC5/X64/MdePkg/Library/BaseLib/BaseLib/OUTPUT/BaseLib.lib(CpuIdEx.obj)
                              (--whole-archive)
/root/edk2/Build/OvmfX64/RELEASE_GCC5/X64/MdePkg/Library/BaseLib/BaseLib/OUTPUT/BaseLib.lib(EnableCache.obj)
                              (--whole-archive)
/root/edk2/Build/OvmfX64/RELEASE_GCC5/X64/MdePkg/Library/BaseLib/BaseLib/OUTPUT/BaseLib.lib(DisableCache.obj)
                              (--whole-archive)
/root/edk2/Build/OvmfX64/RELEASE_GCC5/X64/MdePkg/Library/BaseLib/BaseLib/OUTPUT/BaseLib.lib(RdRand.obj)
                              (--whole-archive)
/root/edk2/Build/OvmfX64/RELEASE_GCC5/X64/MdePkg/Library/BaseLib/BaseLib/OUTPUT/BaseLib.lib(ChkStkGcc.obj)
                              (--whole-archive)
/root/edk2/Build/OvmfX64/RELEASE_GCC5/X64/MdePkg/Library/BaseMemoryLibRepStr/BaseMemoryLibRepStr/OUTPUT/BaseMemoryLibRepStr.lib(ScanMem64Wrapper.obj)
                              (--whole-archive)
/root/edk2/Build/OvmfX64/RELEASE_GCC5/X64/MdePkg/Library/BaseMemoryLibRepStr/BaseMemoryLibRepStr/OUTPUT/BaseMemoryLibRepStr.lib(ScanMem32Wrapper.obj)
                              (--whole-archive)
/root/edk2/Build/OvmfX64/RELEASE_GCC5/X64/MdePkg/Library/BaseMemoryLibRepStr/BaseMemoryLibRepStr/OUTPUT/BaseMemoryLibRepStr.lib(ScanMem16Wrapper.obj)
                              (--whole-archive)
/root/edk2/Build/OvmfX64/RELEASE_GCC5/X64/MdePkg/Library/BaseMemoryLibRepStr/BaseMemoryLibRepStr/OUTPUT/BaseMemoryLibRepStr.lib(ScanMem8Wrapper.obj)
                              (--whole-archive)
/root/edk2/Build/OvmfX64/RELEASE_GCC5/X64/MdePkg/Library/BaseMemoryLibRepStr/BaseMemoryLibRepStr/OUTPUT/BaseMemoryLibRepStr.lib(ZeroMemWrapper.obj)
                              (--whole-archive)
/root/edk2/Build/OvmfX64/RELEASE_GCC5/X64/MdePkg/Library/BaseMemoryLibRepStr/BaseMemoryLibRepStr/OUTPUT/BaseMemoryLibRepStr.lib(CompareMemWrapper.obj)
                              (--whole-archive)
/root/edk2/Build/OvmfX64/RELEASE_GCC5/X64/MdePkg/Library/BaseMemoryLibRepStr/BaseMemoryLibRepStr/OUTPUT/BaseMemoryLibRepStr.lib(SetMem64Wrapper.obj)
                              (--whole-archive)
/root/edk2/Build/OvmfX64/RELEASE_GCC5/X64/MdePkg/Library/BaseMemoryLibRepStr/BaseMemoryLibRepStr/OUTPUT/BaseMemoryLibRepStr.lib(SetMem32Wrapper.obj)
                              (--whole-archive)
/root/edk2/Build/OvmfX64/RELEASE_GCC5/X64/MdePkg/Library/BaseMemoryLibRepStr/BaseMemoryLibRepStr/OUTPUT/BaseMemoryLibRepStr.lib(SetMem16Wrapper.obj)
                              (--whole-archive)
/root/edk2/Build/OvmfX64/RELEASE_GCC5/X64/MdePkg/Library/BaseMemoryLibRepStr/BaseMemoryLibRepStr/OUTPUT/BaseMemoryLibRepStr.lib(SetMemWrapper.obj)
                              (--whole-archive)
/root/edk2/Build/OvmfX64/RELEASE_GCC5/X64/MdePkg/Library/BaseMemoryLibRepStr/BaseMemoryLibRepStr/OUTPUT/BaseMemoryLibRepStr.lib(CopyMemWrapper.obj)
                              (--whole-archive)
/root/edk2/Build/OvmfX64/RELEASE_GCC5/X64/MdePkg/Library/BaseMemoryLibRepStr/BaseMemoryLibRepStr/OUTPUT/BaseMemoryLibRepStr.lib(IsZeroBufferWrapper.obj)
                              (--whole-archive)
/root/edk2/Build/OvmfX64/RELEASE_GCC5/X64/MdePkg/Library/BaseMemoryLibRepStr/BaseMemoryLibRepStr/OUTPUT/BaseMemoryLibRepStr.lib(MemLibGuid.obj)
                              (--whole-archive)
/root/edk2/Build/OvmfX64/RELEASE_GCC5/X64/MdePkg/Library/BaseMemoryLibRepStr/BaseMemoryLibRepStr/OUTPUT/BaseMemoryLibRepStr.lib(ScanMem64.obj)
                              (--whole-archive)
/root/edk2/Build/OvmfX64/RELEASE_GCC5/X64/MdePkg/Library/BaseMemoryLibRepStr/BaseMemoryLibRepStr/OUTPUT/BaseMemoryLibRepStr.lib(ScanMem32.obj)
                              (--whole-archive)
/root/edk2/Build/OvmfX64/RELEASE_GCC5/X64/MdePkg/Library/BaseMemoryLibRepStr/BaseMemoryLibRepStr/OUTPUT/BaseMemoryLibRepStr.lib(ScanMem16.obj)
                              (--whole-archive)
/root/edk2/Build/OvmfX64/RELEASE_GCC5/X64/MdePkg/Library/BaseMemoryLibRepStr/BaseMemoryLibRepStr/OUTPUT/BaseMemoryLibRepStr.lib(ScanMem8.obj)
                              (--whole-archive)
/root/edk2/Build/OvmfX64/RELEASE_GCC5/X64/MdePkg/Library/BaseMemoryLibRepStr/BaseMemoryLibRepStr/OUTPUT/BaseMemoryLibRepStr.lib(CompareMem.obj)
                              (--whole-archive)
/root/edk2/Build/OvmfX64/RELEASE_GCC5/X64/MdePkg/Library/BaseMemoryLibRepStr/BaseMemoryLibRepStr/OUTPUT/BaseMemoryLibRepStr.lib(ZeroMem.obj)
                              (--whole-archive)
/root/edk2/Build/OvmfX64/RELEASE_GCC5/X64/MdePkg/Library/BaseMemoryLibRepStr/BaseMemoryLibRepStr/OUTPUT/BaseMemoryLibRepStr.lib(SetMem64.obj)
                              (--whole-archive)
/root/edk2/Build/OvmfX64/RELEASE_GCC5/X64/MdePkg/Library/BaseMemoryLibRepStr/BaseMemoryLibRepStr/OUTPUT/BaseMemoryLibRepStr.lib(SetMem32.obj)
                              (--whole-archive)
/root/edk2/Build/OvmfX64/RELEASE_GCC5/X64/MdePkg/Library/BaseMemoryLibRepStr/BaseMemoryLibRepStr/OUTPUT/BaseMemoryLibRepStr.lib(SetMem16.obj)
                              (--whole-archive)
/root/edk2/Build/OvmfX64/RELEASE_GCC5/X64/MdePkg/Library/BaseMemoryLibRepStr/BaseMemoryLibRepStr/OUTPUT/BaseMemoryLibRepStr.lib(SetMem.obj)
                              (--whole-archive)
/root/edk2/Build/OvmfX64/RELEASE_GCC5/X64/MdePkg/Library/BaseMemoryLibRepStr/BaseMemoryLibRepStr/OUTPUT/BaseMemoryLibRepStr.lib(CopyMem.obj)
                              (--whole-archive)
/root/edk2/Build/OvmfX64/RELEASE_GCC5/X64/MdePkg/Library/BaseMemoryLibRepStr/BaseMemoryLibRepStr/OUTPUT/BaseMemoryLibRepStr.lib(IsZeroBuffer.obj)
                              (--whole-archive)
/root/edk2/Build/OvmfX64/RELEASE_GCC5/X64/MdePkg/Library/BaseDebugPrintErrorLevelLib/BaseDebugPrintErrorLevelLib/OUTPUT/BaseDebugPrintErrorLevelLib.lib(BaseDebugPrintErrorLevelLib.obj)
                              (--whole-archive)
/root/edk2/Build/OvmfX64/RELEASE_GCC5/X64/MdePkg/Library/BaseIoLibIntrinsic/BaseIoLibIntrinsicSev/OUTPUT/BaseIoLibIntrinsicSev.lib(IoLibMmioBuffer.obj)
                              (--whole-archive)
/root/edk2/Build/OvmfX64/RELEASE_GCC5/X64/MdePkg/Library/BaseIoLibIntrinsic/BaseIoLibIntrinsicSev/OUTPUT/BaseIoLibIntrinsicSev.lib(IoHighLevel.obj)
                              (--whole-archive)
/root/edk2/Build/OvmfX64/RELEASE_GCC5/X64/MdePkg/Library/BaseIoLibIntrinsic/BaseIoLibIntrinsicSev/OUTPUT/BaseIoLibIntrinsicSev.lib(IoLibGcc.obj)
                              (--whole-archive)
/root/edk2/Build/OvmfX64/RELEASE_GCC5/X64/MdePkg/Library/BaseIoLibIntrinsic/BaseIoLibIntrinsicSev/OUTPUT/BaseIoLibIntrinsicSev.lib(IoLib.obj)
                              (--whole-archive)
/root/edk2/Build/OvmfX64/RELEASE_GCC5/X64/MdePkg/Library/BaseIoLibIntrinsic/BaseIoLibIntrinsicSev/OUTPUT/BaseIoLibIntrinsicSev.lib(IoFifoSev.obj)
                              (--whole-archive)
/root/edk2/Build/OvmfX64/RELEASE_GCC5/X64/MdePkg/Library/BasePrintLib/BasePrintLib/OUTPUT/BasePrintLib.lib(PrintLibInternal.obj)
                              (--whole-archive)
/root/edk2/Build/OvmfX64/RELEASE_GCC5/X64/MdePkg/Library/BasePrintLib/BasePrintLib/OUTPUT/BasePrintLib.lib(PrintLib.obj)
                              (--whole-archive)
/root/edk2/Build/OvmfX64/RELEASE_GCC5/X64/OvmfPkg/Library/PlatformDebugLibIoPort/PlatformDebugLibIoPort/OUTPUT/PlatformDebugLibIoPort.lib(DebugLib.obj)
                              (--whole-archive)
/root/edk2/Build/OvmfX64/RELEASE_GCC5/X64/OvmfPkg/Library/PlatformDebugLibIoPort/PlatformDebugLibIoPort/OUTPUT/PlatformDebugLibIoPort.lib(DebugLibDetect.obj)
                              (--whole-archive)
/root/edk2/Build/OvmfX64/RELEASE_GCC5/X64/MdePkg/Library/UefiBootServicesTableLib/UefiBootServicesTableLib/OUTPUT/UefiBootServicesTableLib.lib(UefiBootServicesTableLib.obj)
                              (--whole-archive)
/root/edk2/Build/OvmfX64/RELEASE_GCC5/X64/MdePkg/Library/BasePciCf8Lib/BasePciCf8Lib/OUTPUT/BasePciCf8Lib.lib(PciCf8Lib.obj)
                              (--whole-archive)
/root/edk2/Build/OvmfX64/RELEASE_GCC5/X64/MdeModulePkg/Library/DxeCoreMemoryAllocationLib/DxeCoreMemoryAllocationLib/OUTPUT/DxeCoreMemoryAllocationLib.lib(MemoryAllocationLib.obj)
                              (--whole-archive)
/root/edk2/Build/OvmfX64/RELEASE_GCC5/X64/MdeModulePkg/Library/DxeCoreMemoryAllocationLib/DxeCoreMemoryAllocationLib/OUTPUT/DxeCoreMemoryAllocationLib.lib(DxeCoreMemoryProfileLibNull.obj)
                              (--whole-archive)
/root/edk2/Build/OvmfX64/RELEASE_GCC5/X64/MdePkg/Library/BasePciLibCf8/BasePciLibCf8/OUTPUT/BasePciLibCf8.lib(PciLib.obj)
                              (--whole-archive)
/root/edk2/Build/OvmfX64/RELEASE_GCC5/X64/MdePkg/Library/UefiRuntimeServicesTableLib/UefiRuntimeServicesTableLib/OUTPUT/UefiRuntimeServicesTableLib.lib(UefiRuntimeServicesTableLib.obj)
                              (--whole-archive)
/root/edk2/Build/OvmfX64/RELEASE_GCC5/X64/MdePkg/Library/UefiDevicePathLib/UefiDevicePathLib/OUTPUT/UefiDevicePathLib.lib(DevicePathUtilities.obj)
                              (--whole-archive)
/root/edk2/Build/OvmfX64/RELEASE_GCC5/X64/MdePkg/Library/UefiDevicePathLib/UefiDevicePathLib/OUTPUT/UefiDevicePathLib.lib(DevicePathToText.obj)
                              (--whole-archive)
/root/edk2/Build/OvmfX64/RELEASE_GCC5/X64/MdePkg/Library/UefiDevicePathLib/UefiDevicePathLib/OUTPUT/UefiDevicePathLib.lib(DevicePathFromText.obj)
                              (--whole-archive)
/root/edk2/Build/OvmfX64/RELEASE_GCC5/X64/MdePkg/Library/UefiDevicePathLib/UefiDevicePathLib/OUTPUT/UefiDevicePathLib.lib(UefiDevicePathLib.obj)
                              (--whole-archive)
/root/edk2/Build/OvmfX64/RELEASE_GCC5/X64/OvmfPkg/Library/AcpiTimerLib/BaseAcpiTimerLib/OUTPUT/BaseAcpiTimerLib.lib(AcpiTimerLib.obj)
                              (--whole-archive)
/root/edk2/Build/OvmfX64/RELEASE_GCC5/X64/OvmfPkg/Library/AcpiTimerLib/BaseAcpiTimerLib/OUTPUT/BaseAcpiTimerLib.lib(BaseAcpiTimerLib.obj)
                              (--whole-archive)
/root/edk2/Build/OvmfX64/RELEASE_GCC5/X64/MdePkg/Library/DxeCoreEntryPoint/DxeCoreEntryPoint/OUTPUT/DxeCoreEntryPoint.lib(DxeCoreEntryPoint.obj)
                              (--whole-archive)
/root/edk2/Build/OvmfX64/RELEASE_GCC5/X64/MdePkg/Library/BasePeCoffExtraActionLibNull/BasePeCoffExtraActionLibNull/OUTPUT/PeCoffExtraActionLibNull.lib(PeCoffExtraActionLib.obj)
                              (--whole-archive)
/root/edk2/Build/OvmfX64/RELEASE_GCC5/X64/MdePkg/Library/UefiLib/UefiLib/OUTPUT/UefiLib.lib(UefiLibPrint.obj)
                              (--whole-archive)
/root/edk2/Build/OvmfX64/RELEASE_GCC5/X64/MdePkg/Library/UefiLib/UefiLib/OUTPUT/UefiLib.lib(UefiNotTiano.obj)
                              (--whole-archive)
/root/edk2/Build/OvmfX64/RELEASE_GCC5/X64/MdePkg/Library/UefiLib/UefiLib/OUTPUT/UefiLib.lib(UefiDriverModel.obj)
                              (--whole-archive)
/root/edk2/Build/OvmfX64/RELEASE_GCC5/X64/MdePkg/Library/UefiLib/UefiLib/OUTPUT/UefiLib.lib(Console.obj)
                              (--whole-archive)
/root/edk2/Build/OvmfX64/RELEASE_GCC5/X64/MdePkg/Library/UefiLib/UefiLib/OUTPUT/UefiLib.lib(UefiLib.obj)
                              (--whole-archive)
/root/edk2/Build/OvmfX64/RELEASE_GCC5/X64/UefiCpuPkg/Library/BaseXApicX2ApicLib/BaseXApicX2ApicLib/OUTPUT/BaseXApicX2ApicLib.lib(BaseXApicX2ApicLib.obj)
                              (--whole-archive)
/root/edk2/Build/OvmfX64/RELEASE_GCC5/X64/MdePkg/Library/BaseSynchronizationLib/BaseSynchronizationLib/OUTPUT/BaseSynchronizationLib.lib(InternalGetSpinLockProperties.obj)
                              (--whole-archive)
/root/edk2/Build/OvmfX64/RELEASE_GCC5/X64/MdePkg/Library/BaseSynchronizationLib/BaseSynchronizationLib/OUTPUT/BaseSynchronizationLib.lib(GccInline.obj)
                              (--whole-archive)
/root/edk2/Build/OvmfX64/RELEASE_GCC5/X64/MdePkg/Library/BaseSynchronizationLib/BaseSynchronizationLib/OUTPUT/BaseSynchronizationLib.lib(SynchronizationGcc.obj)
                              (--whole-archive)
/root/edk2/Build/OvmfX64/RELEASE_GCC5/X64/PcAtChipsetPkg/Library/SerialIoLib/SerialIoLib/OUTPUT/PcAtSerialPortLib.lib(SerialPortLib.obj)
                              (--whole-archive)
/root/edk2/Build/OvmfX64/RELEASE_GCC5/X64/MdePkg/Library/BasePeCoffGetEntryPointLib/BasePeCoffGetEntryPointLib/OUTPUT/BasePeCoffGetEntryPointLib.lib(PeCoffGetEntryPoint.obj)
                              (--whole-archive)
/root/edk2/Build/OvmfX64/RELEASE_GCC5/X64/MdePkg/Library/DxeExtractGuidedSectionLib/DxeExtractGuidedSectionLib/OUTPUT/DxeExtractGuidedSectionLib.lib(DxeExtractGuidedSectionLib.obj)
                              (--whole-archive)
/root/edk2/Build/OvmfX64/RELEASE_GCC5/X64/MdePkg/Library/BaseCacheMaintenanceLib/BaseCacheMaintenanceLib/OUTPUT/BaseCacheMaintenanceLib.lib(X86Cache.obj)
                              (--whole-archive)
/root/edk2/Build/OvmfX64/RELEASE_GCC5/X64/MdePkg/Library/BaseUefiDecompressLib/BaseUefiDecompressLib/OUTPUT/BaseUefiDecompressLib.lib(BaseUefiDecompressLib.obj)
                              (--whole-archive)
/root/edk2/Build/OvmfX64/RELEASE_GCC5/X64/MdePkg/Library/BasePerformanceLibNull/BasePerformanceLibNull/OUTPUT/BasePerformanceLibNull.lib(PerformanceLib.obj)
                              (--whole-archive)
/root/edk2/Build/OvmfX64/RELEASE_GCC5/X64/MdePkg/Library/DxeCoreHobLib/DxeCoreHobLib/OUTPUT/DxeCoreHobLib.lib(HobLib.obj)
                              (--whole-archive)
/root/edk2/Build/OvmfX64/RELEASE_GCC5/X64/MdePkg/Library/BasePeCoffLib/BasePeCoffLib/OUTPUT/BasePeCoffLib.lib(BasePeCoff.obj)
                              (--whole-archive)
/root/edk2/Build/OvmfX64/RELEASE_GCC5/X64/MdePkg/Library/BasePeCoffLib/BasePeCoffLib/OUTPUT/BasePeCoffLib.lib(PeCoffLoaderEx.obj)
                              (--whole-archive)
/root/edk2/Build/OvmfX64/RELEASE_GCC5/X64/MdeModulePkg/Library/DxeReportStatusCodeLib/DxeReportStatusCodeLib/OUTPUT/DxeReportStatusCodeLib.lib(ReportStatusCodeLib.obj)
                              (--whole-archive)
/root/edk2/Build/OvmfX64/RELEASE_GCC5/X64/MdePkg/Library/DxeServicesLib/DxeServicesLib/OUTPUT/DxeServicesLib.lib(DxeServicesLib.obj)
                              (--whole-archive)
/root/edk2/Build/OvmfX64/RELEASE_GCC5/X64/MdeModulePkg/Library/DebugAgentLibNull/DebugAgentLibNull/OUTPUT/DebugAgentLibNull.lib(DebugAgentLibNull.obj)
                              (--whole-archive)
/root/edk2/Build/OvmfX64/RELEASE_GCC5/X64/UefiCpuPkg/Library/CpuExceptionHandlerLib/DxeCpuExceptionHandlerLib/OUTPUT/DxeCpuExceptionHandlerLib.lib(ExceptionHandlerAsm.obj)
                              (--whole-archive)
/root/edk2/Build/OvmfX64/RELEASE_GCC5/X64/UefiCpuPkg/Library/CpuExceptionHandlerLib/DxeCpuExceptionHandlerLib/OUTPUT/DxeCpuExceptionHandlerLib.lib(ArchExceptionHandler.obj)
                              (--whole-archive)
/root/edk2/Build/OvmfX64/RELEASE_GCC5/X64/UefiCpuPkg/Library/CpuExceptionHandlerLib/DxeCpuExceptionHandlerLib/OUTPUT/DxeCpuExceptionHandlerLib.lib(CpuExceptionCommon.obj)
                              (--whole-archive)
/root/edk2/Build/OvmfX64/RELEASE_GCC5/X64/UefiCpuPkg/Library/CpuExceptionHandlerLib/DxeCpuExceptionHandlerLib/OUTPUT/DxeCpuExceptionHandlerLib.lib(PeiDxeSmmCpuException.obj)
                              (--whole-archive)
/root/edk2/Build/OvmfX64/RELEASE_GCC5/X64/UefiCpuPkg/Library/CpuExceptionHandlerLib/DxeCpuExceptionHandlerLib/OUTPUT/DxeCpuExceptionHandlerLib.lib(DxeException.obj)
                              (--whole-archive)
/root/edk2/Build/OvmfX64/RELEASE_GCC5/X64/MdeModulePkg/Library/LzmaCustomDecompressLib/LzmaCustomDecompressLib/OUTPUT/LzmaDecompressLib.lib(LzmaDecompress.obj)
                              (--whole-archive)
/root/edk2/Build/OvmfX64/RELEASE_GCC5/X64/MdeModulePkg/Library/LzmaCustomDecompressLib/LzmaCustomDecompressLib/OUTPUT/LzmaDecompressLib.lib(LzFind.obj)
                              (--whole-archive)
/root/edk2/Build/OvmfX64/RELEASE_GCC5/X64/MdeModulePkg/Library/LzmaCustomDecompressLib/LzmaCustomDecompressLib/OUTPUT/LzmaDecompressLib.lib(LzmaDec.obj)
                              (--whole-archive)
/root/edk2/Build/OvmfX64/RELEASE_GCC5/X64/MdeModulePkg/Library/LzmaCustomDecompressLib/LzmaCustomDecompressLib/OUTPUT/LzmaDecompressLib.lib(GuidedSectionExtraction.obj)
                              (--whole-archive)
/root/edk2/Build/OvmfX64/RELEASE_GCC5/X64/MdeModulePkg/Core/Dxe/DxeMain/OUTPUT/DxeCore.lib(CoreSectionExtraction.obj)
                              (--whole-archive)
/root/edk2/Build/OvmfX64/RELEASE_GCC5/X64/MdeModulePkg/Core/Dxe/DxeMain/OUTPUT/DxeCore.lib(Image.obj)
                              (--whole-archive)
/root/edk2/Build/OvmfX64/RELEASE_GCC5/X64/MdeModulePkg/Core/Dxe/DxeMain/OUTPUT/DxeCore.lib(DebugImageInfo.obj)
                              (--whole-archive)
/root/edk2/Build/OvmfX64/RELEASE_GCC5/X64/MdeModulePkg/Core/Dxe/DxeMain/OUTPUT/DxeCore.lib(Stall.obj)
                              (--whole-archive)
/root/edk2/Build/OvmfX64/RELEASE_GCC5/X64/MdeModulePkg/Core/Dxe/DxeMain/OUTPUT/DxeCore.lib(SetWatchdogTimer.obj)
                              (--whole-archive)
/root/edk2/Build/OvmfX64/RELEASE_GCC5/X64/MdeModulePkg/Core/Dxe/DxeMain/OUTPUT/DxeCore.lib(InstallConfigurationTable.obj)
                              (--whole-archive)
/root/edk2/Build/OvmfX64/RELEASE_GCC5/X64/MdeModulePkg/Core/Dxe/DxeMain/OUTPUT/DxeCore.lib(PropertiesTable.obj)
                              (--whole-archive)
/root/edk2/Build/OvmfX64/RELEASE_GCC5/X64/MdeModulePkg/Core/Dxe/DxeMain/OUTPUT/DxeCore.lib(MemoryAttributesTable.obj)
                              (--whole-archive)
/root/edk2/Build/OvmfX64/RELEASE_GCC5/X64/MdeModulePkg/Core/Dxe/DxeMain/OUTPUT/DxeCore.lib(MemoryProtection.obj)
                              (--whole-archive)
/root/edk2/Build/OvmfX64/RELEASE_GCC5/X64/MdeModulePkg/Core/Dxe/DxeMain/OUTPUT/DxeCore.lib(Library.obj)
                              (--whole-archive)
/root/edk2/Build/OvmfX64/RELEASE_GCC5/X64/MdeModulePkg/Core/Dxe/DxeMain/OUTPUT/DxeCore.lib(DriverSupport.obj)
                              (--whole-archive)
/root/edk2/Build/OvmfX64/RELEASE_GCC5/X64/MdeModulePkg/Core/Dxe/DxeMain/OUTPUT/DxeCore.lib(Notify.obj)
                              (--whole-archive)
/root/edk2/Build/OvmfX64/RELEASE_GCC5/X64/MdeModulePkg/Core/Dxe/DxeMain/OUTPUT/DxeCore.lib(Locate.obj)
                              (--whole-archive)
/root/edk2/Build/OvmfX64/RELEASE_GCC5/X64/MdeModulePkg/Core/Dxe/DxeMain/OUTPUT/DxeCore.lib(Handle.obj)
                              (--whole-archive)
/root/edk2/Build/OvmfX64/RELEASE_GCC5/X64/MdeModulePkg/Core/Dxe/DxeMain/OUTPUT/DxeCore.lib(Gcd.obj)
                              (--whole-archive)
/root/edk2/Build/OvmfX64/RELEASE_GCC5/X64/MdeModulePkg/Core/Dxe/DxeMain/OUTPUT/DxeCore.lib(Pool.obj)
                              (--whole-archive)
/root/edk2/Build/OvmfX64/RELEASE_GCC5/X64/MdeModulePkg/Core/Dxe/DxeMain/OUTPUT/DxeCore.lib(Page.obj)
                              (--whole-archive)
/root/edk2/Build/OvmfX64/RELEASE_GCC5/X64/MdeModulePkg/Core/Dxe/DxeMain/OUTPUT/DxeCore.lib(MemData.obj)
                              (--whole-archive)
/root/edk2/Build/OvmfX64/RELEASE_GCC5/X64/MdeModulePkg/Core/Dxe/DxeMain/OUTPUT/DxeCore.lib(MemoryProfileRecord.obj)
                              (--whole-archive)
/root/edk2/Build/OvmfX64/RELEASE_GCC5/X64/MdeModulePkg/Core/Dxe/DxeMain/OUTPUT/DxeCore.lib(HeapGuard.obj)
                              (--whole-archive)
/root/edk2/Build/OvmfX64/RELEASE_GCC5/X64/MdeModulePkg/Core/Dxe/DxeMain/OUTPUT/DxeCore.lib(FwVolBlock.obj)
                              (--whole-archive)
/root/edk2/Build/OvmfX64/RELEASE_GCC5/X64/MdeModulePkg/Core/Dxe/DxeMain/OUTPUT/DxeCore.lib(FwVolWrite.obj)
                              (--whole-archive)
/root/edk2/Build/OvmfX64/RELEASE_GCC5/X64/MdeModulePkg/Core/Dxe/DxeMain/OUTPUT/DxeCore.lib(FwVolRead.obj)
                              (--whole-archive)
/root/edk2/Build/OvmfX64/RELEASE_GCC5/X64/MdeModulePkg/Core/Dxe/DxeMain/OUTPUT/DxeCore.lib(FwVolAttrib.obj)
                              (--whole-archive)
/root/edk2/Build/OvmfX64/RELEASE_GCC5/X64/MdeModulePkg/Core/Dxe/DxeMain/OUTPUT/DxeCore.lib(Ffs.obj)
                              (--whole-archive)
/root/edk2/Build/OvmfX64/RELEASE_GCC5/X64/MdeModulePkg/Core/Dxe/DxeMain/OUTPUT/DxeCore.lib(FwVol.obj)
                              (--whole-archive)
/root/edk2/Build/OvmfX64/RELEASE_GCC5/X64/MdeModulePkg/Core/Dxe/DxeMain/OUTPUT/DxeCore.lib(Tpl.obj)
                              (--whole-archive)
/root/edk2/Build/OvmfX64/RELEASE_GCC5/X64/MdeModulePkg/Core/Dxe/DxeMain/OUTPUT/DxeCore.lib(Timer.obj)
                              (--whole-archive)
/root/edk2/Build/OvmfX64/RELEASE_GCC5/X64/MdeModulePkg/Core/Dxe/DxeMain/OUTPUT/DxeCore.lib(Event.obj)
                              (--whole-archive)
/root/edk2/Build/OvmfX64/RELEASE_GCC5/X64/MdeModulePkg/Core/Dxe/DxeMain/OUTPUT/DxeCore.lib(Dependency.obj)
                              (--whole-archive)
/root/edk2/Build/OvmfX64/RELEASE_GCC5/X64/MdeModulePkg/Core/Dxe/DxeMain/OUTPUT/DxeCore.lib(Dispatcher.obj)
                              (--whole-archive)
/root/edk2/Build/OvmfX64/RELEASE_GCC5/X64/MdeModulePkg/Core/Dxe/DxeMain/OUTPUT/DxeCore.lib(DxeProtocolNotify.obj)
                              (--whole-archive)
/root/edk2/Build/OvmfX64/RELEASE_GCC5/X64/MdeModulePkg/Core/Dxe/DxeMain/OUTPUT/DxeCore.lib(DxeMain.obj)
                              (--whole-archive)
/root/edk2/Build/OvmfX64/RELEASE_GCC5/X64/MdeModulePkg/Core/Dxe/DxeMain/OUTPUT/DxeCore.lib(AutoGen.obj)
                              (--whole-archive)

Discarded input sections

 .text          0x0000000000000000        0x0 /tmp/ccQ0GsXz.ltrans0.ltrans.o
 .data          0x0000000000000000        0x0 /tmp/ccQ0GsXz.ltrans0.ltrans.o
 .bss           0x0000000000000000        0x0 /tmp/ccQ0GsXz.ltrans0.ltrans.o
 .text.unlikely.DxeMain
                0x0000000000000000        0x0 /tmp/ccQ0GsXz.ltrans0.ltrans.o
 .rodata._gPcd_FixedAtBuild_PcdImageProtectionPolicy
                0x0000000000000000        0x4 /tmp/ccQ0GsXz.ltrans0.ltrans.o
 .data.rel.ro.local.gDxeCoreDS
                0x0000000000000000        0x8 /tmp/ccQ0GsXz.ltrans0.ltrans.o
 .comment       0x0000000000000000       0x36 /tmp/ccQ0GsXz.ltrans0.ltrans.o
 .note.GNU-stack
                0x0000000000000000        0x0 /tmp/ccQ0GsXz.ltrans0.ltrans.o
 .text          0x0000000000000000        0x0 /tmp/ccQ0GsXz.ltrans1.ltrans.o
 .data          0x0000000000000000        0x0 /tmp/ccQ0GsXz.ltrans1.ltrans.o
 .bss           0x0000000000000000        0x0 /tmp/ccQ0GsXz.ltrans1.ltrans.o
 .text.unlikely.CoreLoadImageCommon.part.1.lto_priv.79
                0x0000000000000000        0x0 /tmp/ccQ0GsXz.ltrans1.ltrans.o
 .comment       0x0000000000000000       0x36 /tmp/ccQ0GsXz.ltrans1.ltrans.o
 .note.GNU-stack
                0x0000000000000000        0x0 /tmp/ccQ0GsXz.ltrans1.ltrans.o
 .text          0x0000000000000000        0x0 /tmp/ccQ0GsXz.ltrans2.ltrans.o
 .data          0x0000000000000000        0x0 /tmp/ccQ0GsXz.ltrans2.ltrans.o
 .bss           0x0000000000000000        0x0 /tmp/ccQ0GsXz.ltrans2.ltrans.o
 .text.unlikely.InvalidateInstructionCacheRange
                0x0000000000000000        0x0 /tmp/ccQ0GsXz.ltrans2.ltrans.o
 .text.unlikely.EfiEventEmptyFunction
                0x0000000000000000        0x0 /tmp/ccQ0GsXz.ltrans2.ltrans.o
 .text.unlikely.LocalApicBaseAddressMsrSupported
                0x0000000000000000        0x0 /tmp/ccQ0GsXz.ltrans2.ltrans.o
 .text.unlikely.GetApicMode
                0x0000000000000000        0x0 /tmp/ccQ0GsXz.ltrans2.ltrans.o
 .text.unlikely.CopyMem
                0x0000000000000000        0x0 /tmp/ccQ0GsXz.ltrans2.ltrans.o
 .text.unlikely.PeCoffLoaderImageReadFromMemory
                0x0000000000000000        0x0 /tmp/ccQ0GsXz.ltrans2.ltrans.o
 .text.unlikely.SetMem
                0x0000000000000000        0x0 /tmp/ccQ0GsXz.ltrans2.ltrans.o
 .text.unlikely.PeCoffLoaderGetImageInfo.part.0.lto_priv.77
                0x0000000000000000        0x0 /tmp/ccQ0GsXz.ltrans2.ltrans.o
 .text.unlikely.PeCoffLoaderImageAddress
                0x0000000000000000        0x0 /tmp/ccQ0GsXz.ltrans2.ltrans.o
 .text.unlikely.GetNextHob
                0x0000000000000000        0x0 /tmp/ccQ0GsXz.ltrans2.ltrans.o
 .text.unlikely.PerformanceMeasurementEnabled
                0x0000000000000000        0x0 /tmp/ccQ0GsXz.ltrans2.ltrans.o
 .text.unlikely.MakeTable
                0x0000000000000000        0x0 /tmp/ccQ0GsXz.ltrans2.ltrans.o
 .text.unlikely.FillBuf
                0x0000000000000000        0x0 /tmp/ccQ0GsXz.ltrans2.ltrans.o
 .text.unlikely.GetBits
                0x0000000000000000        0x0 /tmp/ccQ0GsXz.ltrans2.ltrans.o
 .text.unlikely.ReadPTLen
                0x0000000000000000        0x0 /tmp/ccQ0GsXz.ltrans2.ltrans.o
 .text.unlikely.PeCoffLoaderGetPdbPointer
                0x0000000000000000        0x0 /tmp/ccQ0GsXz.ltrans2.ltrans.o
 .text.unlikely.PeCoffLoaderGetEntryPoint
                0x0000000000000000        0x0 /tmp/ccQ0GsXz.ltrans2.ltrans.o
 .text.unlikely.GetApicId
                0x0000000000000000        0x0 /tmp/ccQ0GsXz.ltrans2.ltrans.o
 .text.unlikely.EfiCreateProtocolNotifyEvent
                0x0000000000000000        0x0 /tmp/ccQ0GsXz.ltrans2.ltrans.o
 .text.unlikely.IsDevicePathEnd
                0x0000000000000000        0x0 /tmp/ccQ0GsXz.ltrans2.ltrans.o
 .text.unlikely.IsDevicePathValid
                0x0000000000000000        0x0 /tmp/ccQ0GsXz.ltrans2.ltrans.o
 .text.unlikely.UefiDevicePathLibGetDevicePathSize
                0x0000000000000000        0x0 /tmp/ccQ0GsXz.ltrans2.ltrans.o
 .text.unlikely.InternalAllocatePool
                0x0000000000000000        0x0 /tmp/ccQ0GsXz.ltrans2.ltrans.o
 .text.unlikely.AllocateCopyPool
                0x0000000000000000        0x0 /tmp/ccQ0GsXz.ltrans2.ltrans.o
 .text.unlikely.UefiDevicePathLibDuplicateDevicePath
                0x0000000000000000        0x0 /tmp/ccQ0GsXz.ltrans2.ltrans.o
 .text.unlikely.AllocateRuntimeCopyPool
                0x0000000000000000        0x0 /tmp/ccQ0GsXz.ltrans2.ltrans.o
 .text.unlikely.AllocatePool
                0x0000000000000000        0x0 /tmp/ccQ0GsXz.ltrans2.ltrans.o
 .text.unlikely.UefiDevicePathLibAppendDevicePath
                0x0000000000000000        0x0 /tmp/ccQ0GsXz.ltrans2.ltrans.o
 .text.unlikely.DebugCodeEnabled
                0x0000000000000000        0x0 /tmp/ccQ0GsXz.ltrans2.ltrans.o
 .text.unlikely.DebugClearMemory
                0x0000000000000000        0x0 /tmp/ccQ0GsXz.ltrans2.ltrans.o
 .text.unlikely.BasePrintLibFillBuffer
                0x0000000000000000        0x0 /tmp/ccQ0GsXz.ltrans2.ltrans.o
 .text.unlikely.CompareGuid
                0x0000000000000000        0x0 /tmp/ccQ0GsXz.ltrans2.ltrans.o
 .text.unlikely.GetNextGuidHob
                0x0000000000000000        0x0 /tmp/ccQ0GsXz.ltrans2.ltrans.o
 .text.unlikely.CopyGuid
                0x0000000000000000        0x0 /tmp/ccQ0GsXz.ltrans2.ltrans.o
 .text.unlikely.ZeroMem
                0x0000000000000000        0x0 /tmp/ccQ0GsXz.ltrans2.ltrans.o
 .text.unlikely.InternalAllocateZeroPool
                0x0000000000000000        0x0 /tmp/ccQ0GsXz.ltrans2.ltrans.o
 .text.unlikely.ReallocatePool
                0x0000000000000000        0x0 /tmp/ccQ0GsXz.ltrans2.ltrans.o
 .text.unlikely.ReallocateExtractHandlerTable
                0x0000000000000000        0x0 /tmp/ccQ0GsXz.ltrans2.ltrans.o
 .text.unlikely.AllocateZeroPool
                0x0000000000000000        0x0 /tmp/ccQ0GsXz.ltrans2.ltrans.o
 .text.unlikely.GetInterruptState
                0x0000000000000000        0x0 /tmp/ccQ0GsXz.ltrans2.ltrans.o
 .text.unlikely.RemoveEntryList
                0x0000000000000000        0x0 /tmp/ccQ0GsXz.ltrans2.ltrans.o
 .text.unlikely.SetInterruptState
                0x0000000000000000        0x0 /tmp/ccQ0GsXz.ltrans2.ltrans.o
 .text.unlikely.CpuDeadLoop
                0x0000000000000000        0x0 /tmp/ccQ0GsXz.ltrans2.ltrans.o
 .text.unlikely._ModuleEntryPoint
                0x0000000000000000        0x0 /tmp/ccQ0GsXz.ltrans2.ltrans.o
 .text.unlikely.InternalAssertJumpBuffer
                0x0000000000000000        0x0 /tmp/ccQ0GsXz.ltrans2.ltrans.o
 .comment       0x0000000000000000       0x36 /tmp/ccQ0GsXz.ltrans2.ltrans.o
 .note.GNU-stack
                0x0000000000000000        0x0 /tmp/ccQ0GsXz.ltrans2.ltrans.o
 .text          0x0000000000000000        0x0 /tmp/ccQ0GsXz.ltrans3.ltrans.o
 .data          0x0000000000000000        0x0 /tmp/ccQ0GsXz.ltrans3.ltrans.o
 .bss           0x0000000000000000        0x0 /tmp/ccQ0GsXz.ltrans3.ltrans.o
 .text.unlikely.GetFileNameFromFilePath
                0x0000000000000000        0x0 /tmp/ccQ0GsXz.ltrans3.ltrans.o
 .text.unlikely.CoreGetMemoryMap
                0x0000000000000000        0x0 /tmp/ccQ0GsXz.ltrans3.ltrans.o
 .text.unlikely.GetMemoryProfileAllocInfoFromAddress
                0x0000000000000000        0x0 /tmp/ccQ0GsXz.ltrans3.ltrans.o
 .text.unlikely.GetMemoryProfileDriverInfoFromAddress
                0x0000000000000000        0x0 /tmp/ccQ0GsXz.ltrans3.ltrans.o
 .text.unlikely.CoreUpdateProfileAllocate
                0x0000000000000000        0x0 /tmp/ccQ0GsXz.ltrans3.ltrans.o
 .text.unlikely.NeedRecordThisDriver
                0x0000000000000000        0x0 /tmp/ccQ0GsXz.ltrans3.ltrans.o
 .text.unlikely.InternalPeCoffGetEntryPoint
                0x0000000000000000        0x0 /tmp/ccQ0GsXz.ltrans3.ltrans.o
 .text.unlikely.UnregisterMemoryProfileImage
                0x0000000000000000        0x0 /tmp/ccQ0GsXz.ltrans3.ltrans.o
 .text.unlikely.BuildDriverInfo
                0x0000000000000000        0x0 /tmp/ccQ0GsXz.ltrans3.ltrans.o
 .text.unlikely.RegisterMemoryProfileImage
                0x0000000000000000        0x0 /tmp/ccQ0GsXz.ltrans3.ltrans.o
 .text.unlikely.PeCoffLoaderGetPeHeaderMagicValue
                0x0000000000000000        0x0 /tmp/ccQ0GsXz.ltrans3.ltrans.o
 .text.unlikely.InternalPeCoffGetSubsystem
                0x0000000000000000        0x0 /tmp/ccQ0GsXz.ltrans3.ltrans.o
 .text.unlikely.CoreConvertPages
                0x0000000000000000        0x0 /tmp/ccQ0GsXz.ltrans3.ltrans.o
 .text.unlikely.CoreInternalAllocatePages.part.3.lto_priv.62
                0x0000000000000000        0x0 /tmp/ccQ0GsXz.ltrans3.ltrans.o
 .text.unlikely.CoreAllocatePages
                0x0000000000000000        0x0 /tmp/ccQ0GsXz.ltrans3.ltrans.o
 .text.unlikely.CoreFreePages
                0x0000000000000000        0x0 /tmp/ccQ0GsXz.ltrans3.ltrans.o
 .comment       0x0000000000000000       0x36 /tmp/ccQ0GsXz.ltrans3.ltrans.o
 .note.GNU-stack
                0x0000000000000000        0x0 /tmp/ccQ0GsXz.ltrans3.ltrans.o
 .text          0x0000000000000000        0x0 /tmp/ccQ0GsXz.ltrans4.ltrans.o
 .data          0x0000000000000000        0x0 /tmp/ccQ0GsXz.ltrans4.ltrans.o
 .bss           0x0000000000000000        0x0 /tmp/ccQ0GsXz.ltrans4.ltrans.o
 .text.unlikely.CoreMergeGcdMapEntry
                0x0000000000000000        0x0 /tmp/ccQ0GsXz.ltrans4.ltrans.o
 .text.unlikely.CoreProtocolsPerHandle
                0x0000000000000000        0x0 /tmp/ccQ0GsXz.ltrans4.ltrans.o
 .text.unlikely.CoreGetProtocolInterface
                0x0000000000000000        0x0 /tmp/ccQ0GsXz.ltrans4.ltrans.o
 .text.unlikely.CoreOpenProtocolInformation
                0x0000000000000000        0x0 /tmp/ccQ0GsXz.ltrans4.ltrans.o
 .text.unlikely.CoreCloseProtocol
                0x0000000000000000        0x0 /tmp/ccQ0GsXz.ltrans4.ltrans.o
 .text.unlikely.CoreOpenProtocol
                0x0000000000000000        0x0 /tmp/ccQ0GsXz.ltrans4.ltrans.o
 .text.unlikely.CoreHandleProtocol
                0x0000000000000000        0x0 /tmp/ccQ0GsXz.ltrans4.ltrans.o
 .text.unlikely.CoreSearchGcdMapEntry
                0x0000000000000000        0x0 /tmp/ccQ0GsXz.ltrans4.ltrans.o
 .text.unlikely.CoreCleanupGcdMapEntry
                0x0000000000000000        0x0 /tmp/ccQ0GsXz.ltrans4.ltrans.o
 .text.unlikely.CoreInsertGcdMapEntry
                0x0000000000000000        0x0 /tmp/ccQ0GsXz.ltrans4.ltrans.o
 .text.unlikely.CoreAllocateGcdMapEntry
                0x0000000000000000        0x0 /tmp/ccQ0GsXz.ltrans4.ltrans.o
 .text.unlikely.CoreReleaseGcdMemoryLock
                0x0000000000000000        0x0 /tmp/ccQ0GsXz.ltrans4.ltrans.o
 .text.unlikely.CoreAcquireGcdMemoryLock
                0x0000000000000000        0x0 /tmp/ccQ0GsXz.ltrans4.ltrans.o
 .text.unlikely.CoreDumpGcdIoSpaceMap
                0x0000000000000000        0x0 /tmp/ccQ0GsXz.ltrans4.ltrans.o
 .text.unlikely.CoreDumpGcdMemorySpaceMap
                0x0000000000000000        0x0 /tmp/ccQ0GsXz.ltrans4.ltrans.o
 .text.unlikely.CoreConvertSpace
                0x0000000000000000        0x0 /tmp/ccQ0GsXz.ltrans4.ltrans.o
 .text.unlikely.CoreInstallProtocolInterfaceNotify.part.3.lto_priv.56
                0x0000000000000000        0x0 /tmp/ccQ0GsXz.ltrans4.ltrans.o
 .text.unlikely.CoreInstallProtocolInterface
                0x0000000000000000        0x0 /tmp/ccQ0GsXz.ltrans4.ltrans.o
 .text.unlikely.CoreDisconnectControllersUsingProtocolInterface
                0x0000000000000000        0x0 /tmp/ccQ0GsXz.ltrans4.ltrans.o
 .text.unlikely.CoreUninstallProtocolInterface
                0x0000000000000000        0x0 /tmp/ccQ0GsXz.ltrans4.ltrans.o
 .text.unlikely.CoreUninstallMultipleProtocolInterfaces
                0x0000000000000000        0x0 /tmp/ccQ0GsXz.ltrans4.ltrans.o
 .text.unlikely.CoreInstallMultipleProtocolInterfaces
                0x0000000000000000        0x0 /tmp/ccQ0GsXz.ltrans4.ltrans.o
 .comment       0x0000000000000000       0x36 /tmp/ccQ0GsXz.ltrans4.ltrans.o
 .note.GNU-stack
                0x0000000000000000        0x0 /tmp/ccQ0GsXz.ltrans4.ltrans.o
 .text          0x0000000000000000        0x0 /tmp/ccQ0GsXz.ltrans5.ltrans.o
 .data          0x0000000000000000        0x0 /tmp/ccQ0GsXz.ltrans5.ltrans.o
 .bss           0x0000000000000000        0x0 /tmp/ccQ0GsXz.ltrans5.ltrans.o
 .text.unlikely.DxeMainUefiDecompressGetInfo
                0x0000000000000000        0x0 /tmp/ccQ0GsXz.ltrans5.ltrans.o
 .text.unlikely.CoreEfiNotAvailableYetArg5
                0x0000000000000000        0x0 /tmp/ccQ0GsXz.ltrans5.ltrans.o
 .text.unlikely.CoreEfiNotAvailableYetArg4
                0x0000000000000000        0x0 /tmp/ccQ0GsXz.ltrans5.ltrans.o
 .text.unlikely.CoreEfiNotAvailableYetArg3
                0x0000000000000000        0x0 /tmp/ccQ0GsXz.ltrans5.ltrans.o
 .text.unlikely.CoreEfiNotAvailableYetArg2
                0x0000000000000000        0x0 /tmp/ccQ0GsXz.ltrans5.ltrans.o
 .text.unlikely.CoreEfiNotAvailableYetArg1
                0x0000000000000000        0x0 /tmp/ccQ0GsXz.ltrans5.ltrans.o
 .text.unlikely.CoreFindFreePagesI.part.0.constprop.44
                0x0000000000000000        0x0 /tmp/ccQ0GsXz.ltrans5.ltrans.o
 .text.unlikely.DxeMainUefiDecompress
                0x0000000000000000        0x0 /tmp/ccQ0GsXz.ltrans5.ltrans.o
 .text.unlikely.BasePrintLibSPrint.constprop.47
                0x0000000000000000        0x0 /tmp/ccQ0GsXz.ltrans5.ltrans.o
 .text.unlikely.FindFreePages.constprop.41
                0x0000000000000000        0x0 /tmp/ccQ0GsXz.ltrans5.ltrans.o
 .text.unlikely.CoreAllocatePoolPages.constprop.42
                0x0000000000000000        0x0 /tmp/ccQ0GsXz.ltrans5.ltrans.o
 .text.unlikely.CoreAllocatePoolPagesI.constprop.40
                0x0000000000000000        0x0 /tmp/ccQ0GsXz.ltrans5.ltrans.o
 .text.unlikely.MergeMemoryMapDescriptor.constprop.39
                0x0000000000000000        0x0 /tmp/ccQ0GsXz.ltrans5.ltrans.o
 .text.unlikely.CoreNewDebugImageInfoEntry.constprop.30
                0x0000000000000000        0x0 /tmp/ccQ0GsXz.ltrans5.ltrans.o
 .text.unlikely.ReportStatusCodeEx.constprop.29
                0x0000000000000000        0x0 /tmp/ccQ0GsXz.ltrans5.ltrans.o
 .text.unlikely.FindChildNode.constprop.1
                0x0000000000000000        0x0 /tmp/ccQ0GsXz.ltrans5.ltrans.o
 .text.unlikely.CalculateEfiHdrCrc
                0x0000000000000000        0x0 /tmp/ccQ0GsXz.ltrans5.ltrans.o
 .text.unlikely.CoreExitBootServices
                0x0000000000000000        0x0 /tmp/ccQ0GsXz.ltrans5.ltrans.o
 .comment       0x0000000000000000       0x36 /tmp/ccQ0GsXz.ltrans5.ltrans.o
 .note.GNU-stack
                0x0000000000000000        0x0 /tmp/ccQ0GsXz.ltrans5.ltrans.o
 .text          0x0000000000000000        0x0 /tmp/ccQ0GsXz.ltrans6.ltrans.o
 .data          0x0000000000000000        0x0 /tmp/ccQ0GsXz.ltrans6.ltrans.o
 .bss           0x0000000000000000        0x0 /tmp/ccQ0GsXz.ltrans6.ltrans.o
 .text.unlikely.FvSetVolumeInfo
                0x0000000000000000        0x0 /tmp/ccQ0GsXz.ltrans6.ltrans.o
 .text.unlikely.FvGetVolumeInfo
                0x0000000000000000        0x0 /tmp/ccQ0GsXz.ltrans6.ltrans.o
 .text.unlikely.FwVolBlockSetAttributes
                0x0000000000000000        0x0 /tmp/ccQ0GsXz.ltrans6.ltrans.o
 .text.unlikely.FvSetVolumeAttributes
                0x0000000000000000        0x0 /tmp/ccQ0GsXz.ltrans6.ltrans.o
 .text.unlikely.FvGetVolumeAttributes
                0x0000000000000000        0x0 /tmp/ccQ0GsXz.ltrans6.ltrans.o
 .text.unlikely.FfsAttributes2FvFileAttributes
                0x0000000000000000        0x0 /tmp/ccQ0GsXz.ltrans6.ltrans.o
 .text.unlikely.FvWriteFile
                0x0000000000000000        0x0 /tmp/ccQ0GsXz.ltrans6.ltrans.o
 .text.unlikely.FwVolBlockGetBlockSize
                0x0000000000000000        0x0 /tmp/ccQ0GsXz.ltrans6.ltrans.o
 .text.unlikely.FwVolBlockGetPhysicalAddress
                0x0000000000000000        0x0 /tmp/ccQ0GsXz.ltrans6.ltrans.o
 .text.unlikely.FwVolBlockWriteBlock
                0x0000000000000000        0x0 /tmp/ccQ0GsXz.ltrans6.ltrans.o
 .text.unlikely.FwVolBlockEraseBlock
                0x0000000000000000        0x0 /tmp/ccQ0GsXz.ltrans6.ltrans.o
 .text.unlikely.FwVolBlockGetAttributes
                0x0000000000000000        0x0 /tmp/ccQ0GsXz.ltrans6.ltrans.o
 .text.unlikely.FwVolBlockReadBlock
                0x0000000000000000        0x0 /tmp/ccQ0GsXz.ltrans6.ltrans.o
 .text.unlikely.FvGetNextFile
                0x0000000000000000        0x0 /tmp/ccQ0GsXz.ltrans6.ltrans.o
 .text.unlikely.FvReadFile
                0x0000000000000000        0x0 /tmp/ccQ0GsXz.ltrans6.ltrans.o
 .text.unlikely.FvReadFileSection
                0x0000000000000000        0x0 /tmp/ccQ0GsXz.ltrans6.ltrans.o
 .text.unlikely.DumpGuardedMemoryBitmap.part.5
                0x0000000000000000        0x0 /tmp/ccQ0GsXz.ltrans6.ltrans.o
 .text.unlikely.ReadFvbData
                0x0000000000000000        0x0 /tmp/ccQ0GsXz.ltrans6.ltrans.o
 .text.unlikely.GetFwVolHeader
                0x0000000000000000        0x0 /tmp/ccQ0GsXz.ltrans6.ltrans.o
 .text.unlikely.VerifyFvHeaderChecksum
                0x0000000000000000        0x0 /tmp/ccQ0GsXz.ltrans6.ltrans.o
 .text.unlikely.GetFileState
                0x0000000000000000        0x0 /tmp/ccQ0GsXz.ltrans6.ltrans.o
 .text.unlikely.ProduceFVBProtocolOnBuffer
                0x0000000000000000        0x0 /tmp/ccQ0GsXz.ltrans6.ltrans.o
 .text.unlikely.CoreProcessFirmwareVolume
                0x0000000000000000        0x0 /tmp/ccQ0GsXz.ltrans6.ltrans.o
 .text.unlikely.AdjustMemoryF.part.2.lto_priv.60
                0x0000000000000000        0x0 /tmp/ccQ0GsXz.ltrans6.ltrans.o
 .text.unlikely.UnsetGuardForMemory.part.1.lto_priv.61
                0x0000000000000000        0x0 /tmp/ccQ0GsXz.ltrans6.ltrans.o
 .text.unlikely.DumpGuardedMemoryBitmap
                0x0000000000000000        0x0 /tmp/ccQ0GsXz.ltrans6.ltrans.o
 .comment       0x0000000000000000       0x36 /tmp/ccQ0GsXz.ltrans6.ltrans.o
 .note.GNU-stack
                0x0000000000000000        0x0 /tmp/ccQ0GsXz.ltrans6.ltrans.o
 .text          0x0000000000000000        0x0 /tmp/ccQ0GsXz.ltrans7.ltrans.o
 .data          0x0000000000000000        0x0 /tmp/ccQ0GsXz.ltrans7.ltrans.o
 .bss           0x0000000000000000        0x0 /tmp/ccQ0GsXz.ltrans7.ltrans.o
 .text.unlikely.ProfileProtocolSetRecordingState
                0x0000000000000000        0x0 /tmp/ccQ0GsXz.ltrans7.ltrans.o
 .text.unlikely.ProfileProtocolGetRecordingState
                0x0000000000000000        0x0 /tmp/ccQ0GsXz.ltrans7.ltrans.o
 .text.unlikely.ProfileProtocolUnregisterImage
                0x0000000000000000        0x0 /tmp/ccQ0GsXz.ltrans7.ltrans.o
 .text.unlikely.ProfileProtocolRegisterImage
                0x0000000000000000        0x0 /tmp/ccQ0GsXz.ltrans7.ltrans.o
 .text.unlikely.ProfileProtocolGetData
                0x0000000000000000        0x0 /tmp/ccQ0GsXz.ltrans7.ltrans.o
 .text.unlikely.CoreUpdateProfileFree
                0x0000000000000000        0x0 /tmp/ccQ0GsXz.ltrans7.ltrans.o
 .text.unlikely.IsMemoryTypeToGuard
                0x0000000000000000        0x0 /tmp/ccQ0GsXz.ltrans7.ltrans.o
 .text.unlikely.UnsetGuardPage
                0x0000000000000000        0x0 /tmp/ccQ0GsXz.ltrans7.ltrans.o
 .text.unlikely.SetGuardPage
                0x0000000000000000        0x0 /tmp/ccQ0GsXz.ltrans7.ltrans.o
 .text.unlikely.FindGuardedMemoryMap
                0x0000000000000000        0x0 /tmp/ccQ0GsXz.ltrans7.ltrans.o
 .text.unlikely.IsMemoryGuarded
                0x0000000000000000        0x0 /tmp/ccQ0GsXz.ltrans7.ltrans.o
 .text.unlikely.GetGuardedMemoryBits
                0x0000000000000000        0x0 /tmp/ccQ0GsXz.ltrans7.ltrans.o
 .text.unlikely.IsGuardPage
                0x0000000000000000        0x0 /tmp/ccQ0GsXz.ltrans7.ltrans.o
 .text.unlikely.CoreConvertPagesWithGuard
                0x0000000000000000        0x0 /tmp/ccQ0GsXz.ltrans7.ltrans.o
 .text.unlikely.SetGuardForMemory
                0x0000000000000000        0x0 /tmp/ccQ0GsXz.ltrans7.ltrans.o
 .text.unlikely.CoreUpdateProfile
                0x0000000000000000        0x0 /tmp/ccQ0GsXz.ltrans7.ltrans.o
 .text.unlikely.ProfileProtocolRecord
                0x0000000000000000        0x0 /tmp/ccQ0GsXz.ltrans7.ltrans.o
 .comment       0x0000000000000000       0x36 /tmp/ccQ0GsXz.ltrans7.ltrans.o
 .note.GNU-stack
                0x0000000000000000        0x0 /tmp/ccQ0GsXz.ltrans7.ltrans.o
 .text          0x0000000000000000        0x0 /tmp/ccQ0GsXz.ltrans8.ltrans.o
 .data          0x0000000000000000        0x0 /tmp/ccQ0GsXz.ltrans8.ltrans.o
 .bss           0x0000000000000000        0x0 /tmp/ccQ0GsXz.ltrans8.ltrans.o
 .text.unlikely.CoreConnectController
                0x0000000000000000        0x0 /tmp/ccQ0GsXz.ltrans8.ltrans.o
 .text.unlikely.DisableNullDetectionAtTheEndOfDxe
                0x0000000000000000        0x0 /tmp/ccQ0GsXz.ltrans8.ltrans.o
 .text.unlikely.CoreReleaseLock
                0x0000000000000000        0x0 /tmp/ccQ0GsXz.ltrans8.ltrans.o
 .text.unlikely.CoreAcquireLock
                0x0000000000000000        0x0 /tmp/ccQ0GsXz.ltrans8.ltrans.o
 .text.unlikely.CoreAcquireLockOrFail
                0x0000000000000000        0x0 /tmp/ccQ0GsXz.ltrans8.ltrans.o
 .text.unlikely.ApplyMemoryProtectionPolicy
                0x0000000000000000        0x0 /tmp/ccQ0GsXz.ltrans8.ltrans.o
 .text.unlikely.SortMemoryMap.lto_priv.69.lto_priv.74
                0x0000000000000000        0x0 /tmp/ccQ0GsXz.ltrans8.ltrans.o
 .text.unlikely.MemoryProtectionCpuArchProtocolNotify
                0x0000000000000000        0x0 /tmp/ccQ0GsXz.ltrans8.ltrans.o
 .comment       0x0000000000000000       0x36 /tmp/ccQ0GsXz.ltrans8.ltrans.o
 .note.GNU-stack
                0x0000000000000000        0x0 /tmp/ccQ0GsXz.ltrans8.ltrans.o
 .text          0x0000000000000000        0x0 /tmp/ccQ0GsXz.ltrans9.ltrans.o
 .data          0x0000000000000000        0x0 /tmp/ccQ0GsXz.ltrans9.ltrans.o
 .bss           0x0000000000000000        0x0 /tmp/ccQ0GsXz.ltrans9.ltrans.o
 .text.unlikely.CoreReadImageFile
                0x0000000000000000        0x0 /tmp/ccQ0GsXz.ltrans9.ltrans.o
 .text.unlikely.CoreLoadedImageInfo
                0x0000000000000000        0x0 /tmp/ccQ0GsXz.ltrans9.ltrans.o
 .text.unlikely.CoreLoadImageEx
                0x0000000000000000        0x0 /tmp/ccQ0GsXz.ltrans9.ltrans.o
 .text.unlikely.CoreLoadImage
                0x0000000000000000        0x0 /tmp/ccQ0GsXz.ltrans9.ltrans.o
 .text.unlikely.CustomGuidedSectionExtract
                0x0000000000000000        0x0 /tmp/ccQ0GsXz.ltrans9.ltrans.o
 .text.unlikely.CoreUnloadAndCloseImage
                0x0000000000000000        0x0 /tmp/ccQ0GsXz.ltrans9.ltrans.o
 .text.unlikely.CoreUnloadImage
                0x0000000000000000        0x0 /tmp/ccQ0GsXz.ltrans9.ltrans.o
 .text.unlikely.CoreUnloadImageEx
                0x0000000000000000        0x0 /tmp/ccQ0GsXz.ltrans9.ltrans.o
 .text.unlikely.CoreExit
                0x0000000000000000        0x0 /tmp/ccQ0GsXz.ltrans9.ltrans.o
 .text.unlikely.CoreStartImage
                0x0000000000000000        0x0 /tmp/ccQ0GsXz.ltrans9.ltrans.o
 .text.unlikely.FindStreamNode.part.2.lto_priv.59
                0x0000000000000000        0x0 /tmp/ccQ0GsXz.ltrans9.ltrans.o
 .text.unlikely.CloseSectionStream
                0x0000000000000000        0x0 /tmp/ccQ0GsXz.ltrans9.ltrans.o
 .comment       0x0000000000000000       0x36 /tmp/ccQ0GsXz.ltrans9.ltrans.o
 .note.GNU-stack
                0x0000000000000000        0x0 /tmp/ccQ0GsXz.ltrans9.ltrans.o
 .text          0x0000000000000000        0x0 /tmp/ccQ0GsXz.ltrans10.ltrans.o
 .data          0x0000000000000000        0x0 /tmp/ccQ0GsXz.ltrans10.ltrans.o
 .bss           0x0000000000000000        0x0 /tmp/ccQ0GsXz.ltrans10.ltrans.o
 .text.unlikely.InstallPropertiesTable
                0x0000000000000000        0x0 /tmp/ccQ0GsXz.ltrans10.ltrans.o
 .text.unlikely.GetImageRecordByAddress
                0x0000000000000000        0x0 /tmp/ccQ0GsXz.ltrans10.ltrans.o
 .text.unlikely.GetPermissionAttributeForMemoryType.lto_priv.72
                0x0000000000000000        0x0 /tmp/ccQ0GsXz.ltrans10.ltrans.o
 .text.unlikely.SetUefiImageMemoryAttributes
                0x0000000000000000        0x0 /tmp/ccQ0GsXz.ltrans10.ltrans.o
 .text.unlikely.SetPropertiesTableSectionAlignment.part.0.lto_priv.76
                0x0000000000000000        0x0 /tmp/ccQ0GsXz.ltrans10.ltrans.o
 .text.unlikely.IsImageRecordCodeSectionValid
                0x0000000000000000        0x0 /tmp/ccQ0GsXz.ltrans10.ltrans.o
 .text.unlikely.SortImageRecordCodeSection
                0x0000000000000000        0x0 /tmp/ccQ0GsXz.ltrans10.ltrans.o
 .text.unlikely.ProtectUefiImage
                0x0000000000000000        0x0 /tmp/ccQ0GsXz.ltrans10.ltrans.o
 .text.unlikely.MergeMemoryMap
                0x0000000000000000        0x0 /tmp/ccQ0GsXz.ltrans10.ltrans.o
 .text.unlikely.CoreGetMemoryMapWithSeparatedImageSection
                0x0000000000000000        0x0 /tmp/ccQ0GsXz.ltrans10.ltrans.o
 .text.unlikely.InstallMemoryAttributesTable
                0x0000000000000000        0x0 /tmp/ccQ0GsXz.ltrans10.ltrans.o
 .text.unlikely.InstallMemoryAttributesTableOnReadyToBoot
                0x0000000000000000        0x0 /tmp/ccQ0GsXz.ltrans10.ltrans.o
 .text.unlikely.InstallMemoryAttributesTableOnMemoryAllocation
                0x0000000000000000        0x0 /tmp/ccQ0GsXz.ltrans10.ltrans.o
 .comment       0x0000000000000000       0x36 /tmp/ccQ0GsXz.ltrans10.ltrans.o
 .note.GNU-stack
                0x0000000000000000        0x0 /tmp/ccQ0GsXz.ltrans10.ltrans.o
 .text          0x0000000000000000        0x0 /tmp/ccQ0GsXz.ltrans11.ltrans.o
 .data          0x0000000000000000        0x0 /tmp/ccQ0GsXz.ltrans11.ltrans.o
 .bss           0x0000000000000000        0x0 /tmp/ccQ0GsXz.ltrans11.ltrans.o
 .text.unlikely.LzmaDec_WriteRem
                0x0000000000000000        0x0 /tmp/ccQ0GsXz.ltrans11.ltrans.o
 .text.unlikely.LzmaDec_DecodeReal2
                0x0000000000000000        0x0 /tmp/ccQ0GsXz.ltrans11.ltrans.o
 .text.unlikely.LzmaUefiDecompress
                0x0000000000000000        0x0 /tmp/ccQ0GsXz.ltrans11.ltrans.o
 .comment       0x0000000000000000       0x36 /tmp/ccQ0GsXz.ltrans11.ltrans.o
 .note.GNU-stack
                0x0000000000000000        0x0 /tmp/ccQ0GsXz.ltrans11.ltrans.o
 .text          0x0000000000000000        0x0 /tmp/ccQ0GsXz.ltrans12.ltrans.o
 .data          0x0000000000000000        0x0 /tmp/ccQ0GsXz.ltrans12.ltrans.o
 .bss           0x0000000000000000        0x0 /tmp/ccQ0GsXz.ltrans12.ltrans.o
 .text.unlikely.RemoveMemoryMapEntry
                0x0000000000000000        0x0 /tmp/ccQ0GsXz.ltrans12.ltrans.o
 .text.unlikely.CoreFreeMemoryMapStack
                0x0000000000000000        0x0 /tmp/ccQ0GsXz.ltrans12.ltrans.o
 .text.unlikely.CoreAddRange
                0x0000000000000000        0x0 /tmp/ccQ0GsXz.ltrans12.ltrans.o
 .text.unlikely.CoreConvertPagesEx
                0x0000000000000000        0x0 /tmp/ccQ0GsXz.ltrans12.ltrans.o
 .text.unlikely.CoreReleaseMemoryLock
                0x0000000000000000        0x0 /tmp/ccQ0GsXz.ltrans12.ltrans.o
 .text.unlikely.CoreAcquireMemoryLock
                0x0000000000000000        0x0 /tmp/ccQ0GsXz.ltrans12.ltrans.o
 .text.unlikely.CoreAddMemoryDescriptor
                0x0000000000000000        0x0 /tmp/ccQ0GsXz.ltrans12.ltrans.o
 .text.unlikely.CoreFreePoolPagesI
                0x0000000000000000        0x0 /tmp/ccQ0GsXz.ltrans12.ltrans.o
 .text.unlikely.CoreFreePoolI
                0x0000000000000000        0x0 /tmp/ccQ0GsXz.ltrans12.ltrans.o
 .text.unlikely.CoreFreePool
                0x0000000000000000        0x0 /tmp/ccQ0GsXz.ltrans12.ltrans.o
 .text.unlikely.CoreAllocatePoolI
                0x0000000000000000        0x0 /tmp/ccQ0GsXz.ltrans12.ltrans.o
 .text.unlikely.CoreInternalAllocatePool.part.1.lto_priv.64
                0x0000000000000000        0x0 /tmp/ccQ0GsXz.ltrans12.ltrans.o
 .text.unlikely.CoreAllocatePool
                0x0000000000000000        0x0 /tmp/ccQ0GsXz.ltrans12.ltrans.o
 .rodata._gPcd_FixedAtBuild_PcdDebugPropertyMask
                0x0000000000000000        0x1 /tmp/ccQ0GsXz.ltrans12.ltrans.o
 .comment       0x0000000000000000       0x36 /tmp/ccQ0GsXz.ltrans12.ltrans.o
 .note.GNU-stack
                0x0000000000000000        0x0 /tmp/ccQ0GsXz.ltrans12.ltrans.o
 .text          0x0000000000000000        0x0 /tmp/ccQ0GsXz.ltrans13.ltrans.o
 .data          0x0000000000000000        0x0 /tmp/ccQ0GsXz.ltrans13.ltrans.o
 .bss           0x0000000000000000        0x0 /tmp/ccQ0GsXz.ltrans13.ltrans.o
 .text.unlikely.PopBool
                0x0000000000000000        0x0 /tmp/ccQ0GsXz.ltrans13.ltrans.o
 .text.unlikely.CoreGetDepexSectionAndPreProccess
                0x0000000000000000        0x0 /tmp/ccQ0GsXz.ltrans13.ltrans.o
 .text.unlikely.CoreNotifyEvent
                0x0000000000000000        0x0 /tmp/ccQ0GsXz.ltrans13.ltrans.o
 .text.unlikely.PushBool
                0x0000000000000000        0x0 /tmp/ccQ0GsXz.ltrans13.ltrans.o
 .text.unlikely.CoreFvToDevicePath
                0x0000000000000000        0x0 /tmp/ccQ0GsXz.ltrans13.ltrans.o
 .text.unlikely.CoreReleaseDispatcherLock
                0x0000000000000000        0x0 /tmp/ccQ0GsXz.ltrans13.ltrans.o
 .text.unlikely.CoreAcquireDispatcherLock
                0x0000000000000000        0x0 /tmp/ccQ0GsXz.ltrans13.ltrans.o
 .text.unlikely.CoreAddToDriverList
                0x0000000000000000        0x0 /tmp/ccQ0GsXz.ltrans13.ltrans.o
 .text.unlikely.CoreInsertOnScheduledQueueWhileProcessingBeforeAndAfter
                0x0000000000000000        0x0 /tmp/ccQ0GsXz.ltrans13.ltrans.o
 .text.unlikely.CoreTrust
                0x0000000000000000        0x0 /tmp/ccQ0GsXz.ltrans13.ltrans.o
 .text.unlikely.CoreSchedule
                0x0000000000000000        0x0 /tmp/ccQ0GsXz.ltrans13.ltrans.o
 .text.unlikely.CoreReleaseEventLock
                0x0000000000000000        0x0 /tmp/ccQ0GsXz.ltrans13.ltrans.o
 .text.unlikely.CoreAcquireEventLock
                0x0000000000000000        0x0 /tmp/ccQ0GsXz.ltrans13.ltrans.o
 .text.unlikely.CoreCloseEvent
                0x0000000000000000        0x0 /tmp/ccQ0GsXz.ltrans13.ltrans.o
 .text.unlikely.CoreCheckEvent
                0x0000000000000000        0x0 /tmp/ccQ0GsXz.ltrans13.ltrans.o
 .text.unlikely.CoreCreateEventInternal
                0x0000000000000000        0x0 /tmp/ccQ0GsXz.ltrans13.ltrans.o
 .text.unlikely.CoreCreateEventEx
                0x0000000000000000        0x0 /tmp/ccQ0GsXz.ltrans13.ltrans.o
 .text.unlikely.CoreCreateEvent
                0x0000000000000000        0x0 /tmp/ccQ0GsXz.ltrans13.ltrans.o
 .text.unlikely.CoreNotifySignalList
                0x0000000000000000        0x0 /tmp/ccQ0GsXz.ltrans13.ltrans.o
 .text.unlikely.CoreSignalEvent
                0x0000000000000000        0x0 /tmp/ccQ0GsXz.ltrans13.ltrans.o
 .text.unlikely.CoreDispatcher
                0x0000000000000000        0x0 /tmp/ccQ0GsXz.ltrans13.ltrans.o
 .text.unlikely.CoreWaitForEvent
                0x0000000000000000        0x0 /tmp/ccQ0GsXz.ltrans13.ltrans.o
 .comment       0x0000000000000000       0x36 /tmp/ccQ0GsXz.ltrans13.ltrans.o
 .note.GNU-stack
                0x0000000000000000        0x0 /tmp/ccQ0GsXz.ltrans13.ltrans.o
 .text          0x0000000000000000        0x0 /tmp/ccQ0GsXz.ltrans14.ltrans.o
 .data          0x0000000000000000        0x0 /tmp/ccQ0GsXz.ltrans14.ltrans.o
 .bss           0x0000000000000000        0x0 /tmp/ccQ0GsXz.ltrans14.ltrans.o
 .text.unlikely.CoreAllocateSpace.part.13
                0x0000000000000000        0x0 /tmp/ccQ0GsXz.ltrans14.ltrans.o
 .text.unlikely.CoreAllocateMemorySpace
                0x0000000000000000        0x0 /tmp/ccQ0GsXz.ltrans14.ltrans.o
 .text.unlikely.CoreAllocateIoSpace
                0x0000000000000000        0x0 /tmp/ccQ0GsXz.ltrans14.ltrans.o
 .text.unlikely.CoreGetIoSpaceDescriptor
                0x0000000000000000        0x0 /tmp/ccQ0GsXz.ltrans14.ltrans.o
 .text.unlikely.CoreRemoveIoSpace
                0x0000000000000000        0x0 /tmp/ccQ0GsXz.ltrans14.ltrans.o
 .text.unlikely.CoreFreeIoSpace
                0x0000000000000000        0x0 /tmp/ccQ0GsXz.ltrans14.ltrans.o
 .text.unlikely.CoreAddIoSpace
                0x0000000000000000        0x0 /tmp/ccQ0GsXz.ltrans14.ltrans.o
 .text.unlikely.CoreSetMemorySpaceAttributes
                0x0000000000000000        0x0 /tmp/ccQ0GsXz.ltrans14.ltrans.o
 .text.unlikely.CoreRemoveMemorySpace
                0x0000000000000000        0x0 /tmp/ccQ0GsXz.ltrans14.ltrans.o
 .text.unlikely.CoreFreeMemorySpace
                0x0000000000000000        0x0 /tmp/ccQ0GsXz.ltrans14.ltrans.o
 .text.unlikely.CoreSetMemorySpaceCapabilities
                0x0000000000000000        0x0 /tmp/ccQ0GsXz.ltrans14.ltrans.o
 .text.unlikely.CoreAddMemorySpace
                0x0000000000000000        0x0 /tmp/ccQ0GsXz.ltrans14.ltrans.o
 .text.unlikely.LookupPoolHead
                0x0000000000000000        0x0 /tmp/ccQ0GsXz.ltrans14.ltrans.o
 .text.unlikely.GetPoolIndexFromSize.lto_priv.65
                0x0000000000000000        0x0 /tmp/ccQ0GsXz.ltrans14.ltrans.o
 .text.unlikely.CoreGetIoSpaceMap.part.7.lto_priv.67
                0x0000000000000000        0x0 /tmp/ccQ0GsXz.ltrans14.ltrans.o
 .text.unlikely.CoreGetIoSpaceMap
                0x0000000000000000        0x0 /tmp/ccQ0GsXz.ltrans14.ltrans.o
 .text.unlikely.CoreGetMemorySpaceMap.part.4.lto_priv.54
                0x0000000000000000        0x0 /tmp/ccQ0GsXz.ltrans14.ltrans.o
 .text.unlikely.CoreGetMemorySpaceMap
                0x0000000000000000        0x0 /tmp/ccQ0GsXz.ltrans14.ltrans.o
 .text.unlikely.CoreGetMemorySpaceDescriptor.part.3.lto_priv.55
                0x0000000000000000        0x0 /tmp/ccQ0GsXz.ltrans14.ltrans.o
 .text.unlikely.CoreGetMemorySpaceDescriptor
                0x0000000000000000        0x0 /tmp/ccQ0GsXz.ltrans14.ltrans.o
 .text.unlikely.CoreConvertResourceDescriptorHobAttributesToCapabilities
                0x0000000000000000        0x0 /tmp/ccQ0GsXz.ltrans14.ltrans.o
 .comment       0x0000000000000000       0x36 /tmp/ccQ0GsXz.ltrans14.ltrans.o
 .note.GNU-stack
                0x0000000000000000        0x0 /tmp/ccQ0GsXz.ltrans14.ltrans.o
 .text          0x0000000000000000        0x0 /tmp/ccQ0GsXz.ltrans15.ltrans.o
 .data          0x0000000000000000        0x0 /tmp/ccQ0GsXz.ltrans15.ltrans.o
 .bss           0x0000000000000000        0x0 /tmp/ccQ0GsXz.ltrans15.ltrans.o
 .text.unlikely.VerifyGuidedSectionGuid
                0x0000000000000000        0x0 /tmp/ccQ0GsXz.ltrans15.ltrans.o
 .text.unlikely.LzmaGuidedSectionExtraction
                0x0000000000000000        0x0 /tmp/ccQ0GsXz.ltrans15.ltrans.o
 .text.unlikely.LzmaGuidedSectionGetInfo
                0x0000000000000000        0x0 /tmp/ccQ0GsXz.ltrans15.ltrans.o
 .text.unlikely.OpenSectionStreamEx
                0x0000000000000000        0x0 /tmp/ccQ0GsXz.ltrans15.ltrans.o
 .text.unlikely.CreateChildNode
                0x0000000000000000        0x0 /tmp/ccQ0GsXz.ltrans15.ltrans.o
 .text.unlikely.NotifyGuidedExtraction
                0x0000000000000000        0x0 /tmp/ccQ0GsXz.ltrans15.ltrans.o
 .text.unlikely.LzmaDec_TryDummy.lto_priv.80
                0x0000000000000000        0x0 /tmp/ccQ0GsXz.ltrans15.ltrans.o
 .comment       0x0000000000000000       0x36 /tmp/ccQ0GsXz.ltrans15.ltrans.o
 .note.GNU-stack
                0x0000000000000000        0x0 /tmp/ccQ0GsXz.ltrans15.ltrans.o
 .text          0x0000000000000000        0x0 /tmp/ccQ0GsXz.ltrans16.ltrans.o
 .data          0x0000000000000000        0x0 /tmp/ccQ0GsXz.ltrans16.ltrans.o
 .bss           0x0000000000000000        0x0 /tmp/ccQ0GsXz.ltrans16.ltrans.o
 .text.unlikely.GenericProtocolNotify
                0x0000000000000000        0x0 /tmp/ccQ0GsXz.ltrans16.ltrans.o
 .text.unlikely.CoreNotifyOnProtocolEntryTable
                0x0000000000000000        0x0 /tmp/ccQ0GsXz.ltrans16.ltrans.o
 .text.unlikely.CoreProcessFvImageFile
                0x0000000000000000        0x0 /tmp/ccQ0GsXz.ltrans16.ltrans.o
 .text.unlikely.CoreFwVolEventProtocolNotify
                0x0000000000000000        0x0 /tmp/ccQ0GsXz.ltrans16.ltrans.o
 .comment       0x0000000000000000       0x36 /tmp/ccQ0GsXz.ltrans16.ltrans.o
 .note.GNU-stack
                0x0000000000000000        0x0 /tmp/ccQ0GsXz.ltrans16.ltrans.o
 .text          0x0000000000000000        0x0 /tmp/ccQ0GsXz.ltrans17.ltrans.o
 .data          0x0000000000000000        0x0 /tmp/ccQ0GsXz.ltrans17.ltrans.o
 .bss           0x0000000000000000        0x0 /tmp/ccQ0GsXz.ltrans17.ltrans.o
 .text.unlikely.CoreGetNextLocateAllHandles
                0x0000000000000000        0x0 /tmp/ccQ0GsXz.ltrans17.ltrans.o
 .text.unlikely.CoreGetNextLocateByRegisterNotify
                0x0000000000000000        0x0 /tmp/ccQ0GsXz.ltrans17.ltrans.o
 .text.unlikely.CoreGetNextLocateByProtocol
                0x0000000000000000        0x0 /tmp/ccQ0GsXz.ltrans17.ltrans.o
 .text.unlikely.CoreFindProtocolEntry
                0x0000000000000000        0x0 /tmp/ccQ0GsXz.ltrans17.ltrans.o
 .text.unlikely.CoreFindProtocolInterface
                0x0000000000000000        0x0 /tmp/ccQ0GsXz.ltrans17.ltrans.o
 .text.unlikely.CoreValidateHandle
                0x0000000000000000        0x0 /tmp/ccQ0GsXz.ltrans17.ltrans.o
 .text.unlikely.CoreReleaseProtocolLock
                0x0000000000000000        0x0 /tmp/ccQ0GsXz.ltrans17.ltrans.o
 .text.unlikely.CoreAcquireProtocolLock
                0x0000000000000000        0x0 /tmp/ccQ0GsXz.ltrans17.ltrans.o
 .text.unlikely.CoreRegisterProtocolNotify
                0x0000000000000000        0x0 /tmp/ccQ0GsXz.ltrans17.ltrans.o
 .text.unlikely.CoreDisconnectController
                0x0000000000000000        0x0 /tmp/ccQ0GsXz.ltrans17.ltrans.o
 .text.unlikely.CoreLocateProtocol.part.1.lto_priv.58
                0x0000000000000000        0x0 /tmp/ccQ0GsXz.ltrans17.ltrans.o
 .text.unlikely.CoreLocateProtocol
                0x0000000000000000        0x0 /tmp/ccQ0GsXz.ltrans17.ltrans.o
 .text.unlikely.CoreLocateHandle.part.0.lto_priv.57
                0x0000000000000000        0x0 /tmp/ccQ0GsXz.ltrans17.ltrans.o
 .text.unlikely.CoreLocateHandle
                0x0000000000000000        0x0 /tmp/ccQ0GsXz.ltrans17.ltrans.o
 .text.unlikely.CoreLocateHandleBuffer.part.2.lto_priv.71
                0x0000000000000000        0x0 /tmp/ccQ0GsXz.ltrans17.ltrans.o
 .text.unlikely.CoreLocateDevicePath.part.3.lto_priv.68
                0x0000000000000000        0x0 /tmp/ccQ0GsXz.ltrans17.ltrans.o
 .text.unlikely.CoreLocateDevicePath
                0x0000000000000000        0x0 /tmp/ccQ0GsXz.ltrans17.ltrans.o
 .text.unlikely.CoreLocateHandleBuffer
                0x0000000000000000        0x0 /tmp/ccQ0GsXz.ltrans17.ltrans.o
 .text.unlikely.CoreRemoveInterfaceFromProtocol
                0x0000000000000000        0x0 /tmp/ccQ0GsXz.ltrans17.ltrans.o
 .text.unlikely.CoreNotifyProtocolEntry
                0x0000000000000000        0x0 /tmp/ccQ0GsXz.ltrans17.ltrans.o
 .text.unlikely.CoreReinstallProtocolInterface
                0x0000000000000000        0x0 /tmp/ccQ0GsXz.ltrans17.ltrans.o
 .text.unlikely.AddSortedDriverBindingProtocol
                0x0000000000000000        0x0 /tmp/ccQ0GsXz.ltrans17.ltrans.o
 .comment       0x0000000000000000       0x36 /tmp/ccQ0GsXz.ltrans17.ltrans.o
 .note.GNU-stack
                0x0000000000000000        0x0 /tmp/ccQ0GsXz.ltrans17.ltrans.o
 .text          0x0000000000000000        0x0 /tmp/ccQ0GsXz.ltrans18.ltrans.o
 .data          0x0000000000000000        0x0 /tmp/ccQ0GsXz.ltrans18.ltrans.o
 .bss           0x0000000000000000        0x0 /tmp/ccQ0GsXz.ltrans18.ltrans.o
 .text.unlikely.CoreInsertEventTimer
                0x0000000000000000        0x0 /tmp/ccQ0GsXz.ltrans18.ltrans.o
 .text.unlikely.CoreSetInterruptState
                0x0000000000000000        0x0 /tmp/ccQ0GsXz.ltrans18.ltrans.o
 .text.unlikely.CoreRaiseTpl
                0x0000000000000000        0x0 /tmp/ccQ0GsXz.ltrans18.ltrans.o
 .text.unlikely.CoreSetTimer
                0x0000000000000000        0x0 /tmp/ccQ0GsXz.ltrans18.ltrans.o
 .text.unlikely.CoreTimerTick
                0x0000000000000000        0x0 /tmp/ccQ0GsXz.ltrans18.ltrans.o
 .text.unlikely.CoreCheckTimers
                0x0000000000000000        0x0 /tmp/ccQ0GsXz.ltrans18.ltrans.o
 .text.unlikely.CoreRestoreTpl
                0x0000000000000000        0x0 /tmp/ccQ0GsXz.ltrans18.ltrans.o
 .text.unlikely.NotifyFwVolBlock
                0x0000000000000000        0x0 /tmp/ccQ0GsXz.ltrans18.ltrans.o
 .comment       0x0000000000000000       0x36 /tmp/ccQ0GsXz.ltrans18.ltrans.o
 .note.GNU-stack
                0x0000000000000000        0x0 /tmp/ccQ0GsXz.ltrans18.ltrans.o
 .text          0x0000000000000000        0x0 /tmp/ccQ0GsXz.ltrans19.ltrans.o
 .data          0x0000000000000000        0x0 /tmp/ccQ0GsXz.ltrans19.ltrans.o
 .bss           0x0000000000000000        0x0 /tmp/ccQ0GsXz.ltrans19.ltrans.o
 .text.unlikely.BasePrintLibSPrintMarker.constprop.48
                0x0000000000000000        0x0 /tmp/ccQ0GsXz.ltrans19.ltrans.o
 .comment       0x0000000000000000       0x36 /tmp/ccQ0GsXz.ltrans19.ltrans.o
 .note.GNU-stack
                0x0000000000000000        0x0 /tmp/ccQ0GsXz.ltrans19.ltrans.o
 .text          0x0000000000000000        0x0 /tmp/ccQ0GsXz.ltrans20.ltrans.o
 .data          0x0000000000000000        0x0 /tmp/ccQ0GsXz.ltrans20.ltrans.o
 .bss           0x0000000000000000        0x0 /tmp/ccQ0GsXz.ltrans20.ltrans.o
 .text.unlikely.SzFree
                0x0000000000000000        0x0 /tmp/ccQ0GsXz.ltrans20.ltrans.o
 .text.unlikely.SzAlloc
                0x0000000000000000        0x0 /tmp/ccQ0GsXz.ltrans20.ltrans.o
 .text.unlikely.InternalPrintMessage
                0x0000000000000000        0x0 /tmp/ccQ0GsXz.ltrans20.ltrans.o
 .text.unlikely.DumpModuleImageInfo
                0x0000000000000000        0x0 /tmp/ccQ0GsXz.ltrans20.ltrans.o
 .text.unlikely.GetDecodedSizeOfBuf
                0x0000000000000000        0x0 /tmp/ccQ0GsXz.ltrans20.ltrans.o
 .text.unlikely.CommonExceptionHandler
                0x0000000000000000        0x0 /tmp/ccQ0GsXz.ltrans20.ltrans.o
 .text.unlikely.InternalGetReportStatusCode.part.0.lto_priv.53
                0x0000000000000000        0x0 /tmp/ccQ0GsXz.ltrans20.ltrans.o
 .text.unlikely.ReportDebugCodeEnabled
                0x0000000000000000        0x0 /tmp/ccQ0GsXz.ltrans20.ltrans.o
 .text.unlikely.ReportErrorCodeEnabled
                0x0000000000000000        0x0 /tmp/ccQ0GsXz.ltrans20.ltrans.o
 .text.unlikely.ReportProgressCodeEnabled
                0x0000000000000000        0x0 /tmp/ccQ0GsXz.ltrans20.ltrans.o
 .text.unlikely.ReportStatusCode
                0x0000000000000000        0x0 /tmp/ccQ0GsXz.ltrans20.ltrans.o
 .comment       0x0000000000000000       0x36 /tmp/ccQ0GsXz.ltrans20.ltrans.o
 .note.GNU-stack
                0x0000000000000000        0x0 /tmp/ccQ0GsXz.ltrans20.ltrans.o
 .text          0x0000000000000000        0x0 /tmp/ccQ0GsXz.ltrans21.ltrans.o
 .data          0x0000000000000000        0x0 /tmp/ccQ0GsXz.ltrans21.ltrans.o
 .bss           0x0000000000000000        0x0 /tmp/ccQ0GsXz.ltrans21.ltrans.o
 .text.unlikely.CoreSetWatchdogTimer
                0x0000000000000000        0x0 /tmp/ccQ0GsXz.ltrans21.ltrans.o
 .text.unlikely.CoreInternalWaitForTick
                0x0000000000000000        0x0 /tmp/ccQ0GsXz.ltrans21.ltrans.o
 .text.unlikely.CoreStall
                0x0000000000000000        0x0 /tmp/ccQ0GsXz.ltrans21.ltrans.o
 .text.unlikely.CoreInstallConfigurationTable
                0x0000000000000000        0x0 /tmp/ccQ0GsXz.ltrans21.ltrans.o
 .text.unlikely.EfiSizeToPages.lto_priv.75
                0x0000000000000000        0x0 /tmp/ccQ0GsXz.ltrans21.ltrans.o
 .comment       0x0000000000000000       0x36 /tmp/ccQ0GsXz.ltrans21.ltrans.o
 .note.GNU-stack
                0x0000000000000000        0x0 /tmp/ccQ0GsXz.ltrans21.ltrans.o
 .text          0x0000000000000000        0x0 DxePcdLib.obj (symbol from plugin)
 .text          0x0000000000000000        0x0 CheckSum.obj (symbol from plugin)
 .text          0x0000000000000000        0x0 SwitchStack.obj (symbol from plugin)
 .text          0x0000000000000000        0x0 SwapBytes64.obj (symbol from plugin)
 .text          0x0000000000000000        0x0 SwapBytes32.obj (symbol from plugin)
 .text          0x0000000000000000        0x0 SwapBytes16.obj (symbol from plugin)
 .text          0x0000000000000000        0x0 LongJump.obj (symbol from plugin)
 .text          0x0000000000000000        0x0 SetJump.obj (symbol from plugin)
 .text          0x0000000000000000        0x0 RShiftU64.obj (symbol from plugin)
 .text          0x0000000000000000        0x0 RRotU64.obj (symbol from plugin)
 .text          0x0000000000000000        0x0 RRotU32.obj (symbol from plugin)
 .text          0x0000000000000000        0x0 MultU64x64.obj (symbol from plugin)
 .text          0x0000000000000000        0x0 MultU64x32.obj (symbol from plugin)
 .text          0x0000000000000000        0x0 MultS64x64.obj (symbol from plugin)
 .text          0x0000000000000000        0x0 ModU64x32.obj (symbol from plugin)
 .text          0x0000000000000000        0x0 LShiftU64.obj (symbol from plugin)
 .text          0x0000000000000000        0x0 LRotU64.obj (symbol from plugin)
 .text          0x0000000000000000        0x0 LRotU32.obj (symbol from plugin)
 .text          0x0000000000000000        0x0 LowBitSet64.obj (symbol from plugin)
 .text          0x0000000000000000        0x0 LowBitSet32.obj (symbol from plugin)
 .text          0x0000000000000000        0x0 HighBitSet64.obj (symbol from plugin)
 .text          0x0000000000000000        0x0 HighBitSet32.obj (symbol from plugin)
 .text          0x0000000000000000        0x0 GetPowerOfTwo64.obj (symbol from plugin)
 .text          0x0000000000000000        0x0 GetPowerOfTwo32.obj (symbol from plugin)
 .text          0x0000000000000000        0x0 DivU64x64Remainder.obj (symbol from plugin)
 .text          0x0000000000000000        0x0 DivU64x32Remainder.obj (symbol from plugin)
 .text          0x0000000000000000        0x0 DivU64x32.obj (symbol from plugin)
 .text          0x0000000000000000        0x0 DivS64x64Remainder.obj (symbol from plugin)
 .text          0x0000000000000000        0x0 ARShiftU64.obj (symbol from plugin)
 .text          0x0000000000000000        0x0 BitField.obj (symbol from plugin)
 .text          0x0000000000000000        0x0 CpuDeadLoop.obj (symbol from plugin)
 .text          0x0000000000000000        0x0 Cpu.obj (symbol from plugin)
 .text          0x0000000000000000        0x0 LinkedList.obj (symbol from plugin)
 .text          0x0000000000000000        0x0 SafeString.obj (symbol from plugin)
 .text          0x0000000000000000        0x0 String.obj (symbol from plugin)
 .text          0x0000000000000000        0x0 FilePaths.obj (symbol from plugin)
 .text          0x0000000000000000      0x204 /root/edk2/Build/OvmfX64/RELEASE_GCC5/X64/MdePkg/Library/BaseLib/BaseLib/OUTPUT/BaseLib.lib(Thunk16.obj)
 .data          0x0000000000000000        0xa /root/edk2/Build/OvmfX64/RELEASE_GCC5/X64/MdePkg/Library/BaseLib/BaseLib/OUTPUT/BaseLib.lib(Thunk16.obj)
 .text          0x0000000000000000        0x0 Non-existing.obj (symbol from plugin)
 .text          0x0000000000000000        0x0 Math64.obj (symbol from plugin)
 .text          0x0000000000000000        0x0 Unaligned.obj (symbol from plugin)
 .text          0x0000000000000000        0x0 X86WriteIdtr.obj (symbol from plugin)
 .text          0x0000000000000000        0x0 X86WriteGdtr.obj (symbol from plugin)
 .text          0x0000000000000000        0x0 X86Thunk.obj (symbol from plugin)
 .text          0x0000000000000000        0x0 X86ReadIdtr.obj (symbol from plugin)
 .text          0x0000000000000000        0x0 X86ReadGdtr.obj (symbol from plugin)
 .text          0x0000000000000000        0x0 X86Msr.obj (symbol from plugin)
 .text          0x0000000000000000        0x0 X86GetInterruptState.obj (symbol from plugin)
 .text          0x0000000000000000        0x0 X86FxSave.obj (symbol from plugin)
 .text          0x0000000000000000        0x0 X86FxRestore.obj (symbol from plugin)
 .text          0x0000000000000000        0x0 X86EnablePaging64.obj (symbol from plugin)
 .text          0x0000000000000000        0x0 X86EnablePaging32.obj (symbol from plugin)
 .text          0x0000000000000000        0x0 X86DisablePaging64.obj (symbol from plugin)
 .text          0x0000000000000000        0x0 X86DisablePaging32.obj (symbol from plugin)
 .text          0x0000000000000000        0x0 X86RdRand.obj (symbol from plugin)
 .text          0x0000000000000000        0x0 GccInline.obj (symbol from plugin)
 .text          0x0000000000000000        0xf /root/edk2/Build/OvmfX64/RELEASE_GCC5/X64/MdePkg/Library/BaseLib/BaseLib/OUTPUT/BaseLib.lib(SwitchStack.obj)
 .text          0x0000000000000000        0x3 /root/edk2/Build/OvmfX64/RELEASE_GCC5/X64/MdePkg/Library/BaseLib/BaseLib/OUTPUT/BaseLib.lib(EnableDisableInterrupts.obj)
 .text          0x0000000000000000       0x61 /root/edk2/Build/OvmfX64/RELEASE_GCC5/X64/MdePkg/Library/BaseLib/BaseLib/OUTPUT/BaseLib.lib(DisablePaging64.obj)
 .text          0x0000000000000000       0x13 /root/edk2/Build/OvmfX64/RELEASE_GCC5/X64/MdePkg/Library/BaseLib/BaseLib/OUTPUT/BaseLib.lib(EnableCache.obj)
 .text          0x0000000000000000       0x13 /root/edk2/Build/OvmfX64/RELEASE_GCC5/X64/MdePkg/Library/BaseLib/BaseLib/OUTPUT/BaseLib.lib(DisableCache.obj)
 .text          0x0000000000000000       0x36 /root/edk2/Build/OvmfX64/RELEASE_GCC5/X64/MdePkg/Library/BaseLib/BaseLib/OUTPUT/BaseLib.lib(RdRand.obj)
 .text          0x0000000000000000        0x0 ChkStkGcc.obj (symbol from plugin)
 .text          0x0000000000000000        0x0 ScanMem64Wrapper.obj (symbol from plugin)
 .text          0x0000000000000000        0x0 ScanMem32Wrapper.obj (symbol from plugin)
 .text          0x0000000000000000        0x0 ScanMem16Wrapper.obj (symbol from plugin)
 .text          0x0000000000000000        0x0 ScanMem8Wrapper.obj (symbol from plugin)
 .text          0x0000000000000000        0x0 ZeroMemWrapper.obj (symbol from plugin)
 .text          0x0000000000000000        0x0 CompareMemWrapper.obj (symbol from plugin)
 .text          0x0000000000000000        0x0 SetMem64Wrapper.obj (symbol from plugin)
 .text          0x0000000000000000        0x0 SetMem32Wrapper.obj (symbol from plugin)
 .text          0x0000000000000000        0x0 SetMem16Wrapper.obj (symbol from plugin)
 .text          0x0000000000000000        0x0 SetMemWrapper.obj (symbol from plugin)
 .text          0x0000000000000000        0x0 CopyMemWrapper.obj (symbol from plugin)
 .text          0x0000000000000000        0x0 IsZeroBufferWrapper.obj (symbol from plugin)
 .text          0x0000000000000000        0x0 MemLibGuid.obj (symbol from plugin)
 .text          0x0000000000000000       0x17 /root/edk2/Build/OvmfX64/RELEASE_GCC5/X64/MdePkg/Library/BaseMemoryLibRepStr/BaseMemoryLibRepStr/OUTPUT/BaseMemoryLibRepStr.lib(ScanMem64.obj)
 .text          0x0000000000000000       0x16 /root/edk2/Build/OvmfX64/RELEASE_GCC5/X64/MdePkg/Library/BaseMemoryLibRepStr/BaseMemoryLibRepStr/OUTPUT/BaseMemoryLibRepStr.lib(ScanMem32.obj)
 .text          0x0000000000000000       0x17 /root/edk2/Build/OvmfX64/RELEASE_GCC5/X64/MdePkg/Library/BaseMemoryLibRepStr/BaseMemoryLibRepStr/OUTPUT/BaseMemoryLibRepStr.lib(ScanMem16.obj)
 .text          0x0000000000000000       0x16 /root/edk2/Build/OvmfX64/RELEASE_GCC5/X64/MdePkg/Library/BaseMemoryLibRepStr/BaseMemoryLibRepStr/OUTPUT/BaseMemoryLibRepStr.lib(ScanMem8.obj)
 .text          0x0000000000000000       0x11 /root/edk2/Build/OvmfX64/RELEASE_GCC5/X64/MdePkg/Library/BaseMemoryLibRepStr/BaseMemoryLibRepStr/OUTPUT/BaseMemoryLibRepStr.lib(SetMem32.obj)
 .text          0x0000000000000000       0x2a /root/edk2/Build/OvmfX64/RELEASE_GCC5/X64/MdePkg/Library/BaseMemoryLibRepStr/BaseMemoryLibRepStr/OUTPUT/BaseMemoryLibRepStr.lib(IsZeroBuffer.obj)
 .text          0x0000000000000000        0x0 BaseDebugPrintErrorLevelLib.obj (symbol from plugin)
 .text          0x0000000000000000        0x0 IoLibMmioBuffer.obj (symbol from plugin)
 .text          0x0000000000000000        0x0 IoHighLevel.obj (symbol from plugin)
 .text          0x0000000000000000        0x0 IoLibGcc.obj (symbol from plugin)
 .text          0x0000000000000000        0x0 IoLib.obj (symbol from plugin)
 .text          0x0000000000000000      0x116 /root/edk2/Build/OvmfX64/RELEASE_GCC5/X64/MdePkg/Library/BaseIoLibIntrinsic/BaseIoLibIntrinsicSev/OUTPUT/BaseIoLibIntrinsicSev.lib(IoFifoSev.obj)
 .text          0x0000000000000000        0x0 PrintLibInternal.obj (symbol from plugin)
 .text          0x0000000000000000        0x0 PrintLib.obj (symbol from plugin)
 .text          0x0000000000000000        0x0 DebugLib.obj (symbol from plugin)
 .text          0x0000000000000000        0x0 DebugLibDetect.obj (symbol from plugin)
 .text          0x0000000000000000        0x0 UefiBootServicesTableLib.obj (symbol from plugin)
 .text          0x0000000000000000        0x0 PciCf8Lib.obj (symbol from plugin)
 .text          0x0000000000000000        0x0 MemoryAllocationLib.obj (symbol from plugin)
 .text          0x0000000000000000        0x0 DxeCoreMemoryProfileLibNull.obj (symbol from plugin)
 .text          0x0000000000000000        0x0 PciLib.obj (symbol from plugin)
 .text          0x0000000000000000        0x0 UefiRuntimeServicesTableLib.obj (symbol from plugin)
 .text          0x0000000000000000        0x0 DevicePathUtilities.obj (symbol from plugin)
 .text          0x0000000000000000        0x0 DevicePathToText.obj (symbol from plugin)
 .text          0x0000000000000000        0x0 DevicePathFromText.obj (symbol from plugin)
 .text          0x0000000000000000        0x0 UefiDevicePathLib.obj (symbol from plugin)
 .text          0x0000000000000000        0x0 AcpiTimerLib.obj (symbol from plugin)
 .text          0x0000000000000000        0x0 BaseAcpiTimerLib.obj (symbol from plugin)
 .text          0x0000000000000000        0x0 DxeCoreEntryPoint.obj (symbol from plugin)
 .text          0x0000000000000000        0x0 PeCoffExtraActionLib.obj (symbol from plugin)
 .text          0x0000000000000000        0x0 UefiLibPrint.obj (symbol from plugin)
 .text          0x0000000000000000        0x0 UefiNotTiano.obj (symbol from plugin)
 .text          0x0000000000000000        0x0 UefiDriverModel.obj (symbol from plugin)
 .text          0x0000000000000000        0x0 Console.obj (symbol from plugin)
 .text          0x0000000000000000        0x0 UefiLib.obj (symbol from plugin)
 .text          0x0000000000000000        0x0 BaseXApicX2ApicLib.obj (symbol from plugin)
 .text          0x0000000000000000        0x0 InternalGetSpinLockProperties.obj (symbol from plugin)
 .text          0x0000000000000000        0x0 GccInline.obj (symbol from plugin)
 .text          0x0000000000000000        0x0 SynchronizationGcc.obj (symbol from plugin)
 .text          0x0000000000000000        0x0 SerialPortLib.obj (symbol from plugin)
 .text          0x0000000000000000        0x0 PeCoffGetEntryPoint.obj (symbol from plugin)
 .text          0x0000000000000000        0x0 DxeExtractGuidedSectionLib.obj (symbol from plugin)
 .text          0x0000000000000000        0x0 X86Cache.obj (symbol from plugin)
 .text          0x0000000000000000        0x0 BaseUefiDecompressLib.obj (symbol from plugin)
 .text          0x0000000000000000        0x0 PerformanceLib.obj (symbol from plugin)
 .text          0x0000000000000000        0x0 HobLib.obj (symbol from plugin)
 .text          0x0000000000000000        0x0 BasePeCoff.obj (symbol from plugin)
 .text          0x0000000000000000        0x0 PeCoffLoaderEx.obj (symbol from plugin)
 .text          0x0000000000000000        0x0 ReportStatusCodeLib.obj (symbol from plugin)
 .text          0x0000000000000000        0x0 DxeServicesLib.obj (symbol from plugin)
 .text          0x0000000000000000        0x0 DebugAgentLibNull.obj (symbol from plugin)
 .data          0x0000000000000000        0x0 /root/edk2/Build/OvmfX64/RELEASE_GCC5/X64/UefiCpuPkg/Library/CpuExceptionHandlerLib/DxeCpuExceptionHandlerLib/OUTPUT/DxeCpuExceptionHandlerLib.lib(ExceptionHandlerAsm.obj)
 .text          0x0000000000000000        0x0 ArchExceptionHandler.obj (symbol from plugin)
 .text          0x0000000000000000        0x0 CpuExceptionCommon.obj (symbol from plugin)
 .text          0x0000000000000000        0x0 PeiDxeSmmCpuException.obj (symbol from plugin)
 .text          0x0000000000000000        0x0 DxeException.obj (symbol from plugin)
 .text          0x0000000000000000        0x0 LzmaDecompress.obj (symbol from plugin)
 .text          0x0000000000000000        0x0 LzFind.obj (symbol from plugin)
 .text          0x0000000000000000        0x0 LzmaDec.obj (symbol from plugin)
 .text          0x0000000000000000        0x0 GuidedSectionExtraction.obj (symbol from plugin)
 .text          0x0000000000000000        0x0 CoreSectionExtraction.obj (symbol from plugin)
 .text          0x0000000000000000        0x0 Image.obj (symbol from plugin)
 .text          0x0000000000000000        0x0 DebugImageInfo.obj (symbol from plugin)
 .text          0x0000000000000000        0x0 Stall.obj (symbol from plugin)
 .text          0x0000000000000000        0x0 SetWatchdogTimer.obj (symbol from plugin)
 .text          0x0000000000000000        0x0 InstallConfigurationTable.obj (symbol from plugin)
 .text          0x0000000000000000        0x0 PropertiesTable.obj (symbol from plugin)
 .text          0x0000000000000000        0x0 MemoryAttributesTable.obj (symbol from plugin)
 .text          0x0000000000000000        0x0 MemoryProtection.obj (symbol from plugin)
 .text          0x0000000000000000        0x0 Library.obj (symbol from plugin)
 .text          0x0000000000000000        0x0 DriverSupport.obj (symbol from plugin)
 .text          0x0000000000000000        0x0 Notify.obj (symbol from plugin)
 .text          0x0000000000000000        0x0 Locate.obj (symbol from plugin)
 .text          0x0000000000000000        0x0 Handle.obj (symbol from plugin)
 .text          0x0000000000000000        0x0 Gcd.obj (symbol from plugin)
 .text          0x0000000000000000        0x0 Pool.obj (symbol from plugin)
 .text          0x0000000000000000        0x0 Page.obj (symbol from plugin)
 .text          0x0000000000000000        0x0 MemData.obj (symbol from plugin)
 .text          0x0000000000000000        0x0 MemoryProfileRecord.obj (symbol from plugin)
 .text          0x0000000000000000        0x0 HeapGuard.obj (symbol from plugin)
 .text          0x0000000000000000        0x0 FwVolBlock.obj (symbol from plugin)
 .text          0x0000000000000000        0x0 FwVolWrite.obj (symbol from plugin)
 .text          0x0000000000000000        0x0 FwVolRead.obj (symbol from plugin)
 .text          0x0000000000000000        0x0 FwVolAttrib.obj (symbol from plugin)
 .text          0x0000000000000000        0x0 Ffs.obj (symbol from plugin)
 .text          0x0000000000000000        0x0 FwVol.obj (symbol from plugin)
 .text          0x0000000000000000        0x0 Tpl.obj (symbol from plugin)
 .text          0x0000000000000000        0x0 Timer.obj (symbol from plugin)
 .text          0x0000000000000000        0x0 Event.obj (symbol from plugin)
 .text          0x0000000000000000        0x0 Dependency.obj (symbol from plugin)
 .text          0x0000000000000000        0x0 Dispatcher.obj (symbol from plugin)
 .text          0x0000000000000000        0x0 DxeProtocolNotify.obj (symbol from plugin)
 .text          0x0000000000000000        0x0 DxeMain.obj (symbol from plugin)
 .text          0x0000000000000000        0x0 AutoGen.obj (symbol from plugin)

Memory Configuration

Name             Origin             Length             Attributes
*default*        0x0000000000000000 0xffffffffffffffff

Linker script and memory map

LOAD /tmp/ccQ0GsXz.ltrans0.ltrans.o
LOAD /tmp/ccQ0GsXz.ltrans1.ltrans.o
LOAD /tmp/ccQ0GsXz.ltrans2.ltrans.o
LOAD /tmp/ccQ0GsXz.ltrans3.ltrans.o
LOAD /tmp/ccQ0GsXz.ltrans4.ltrans.o
LOAD /tmp/ccQ0GsXz.ltrans5.ltrans.o
LOAD /tmp/ccQ0GsXz.ltrans6.ltrans.o
LOAD /tmp/ccQ0GsXz.ltrans7.ltrans.o
LOAD /tmp/ccQ0GsXz.ltrans8.ltrans.o
LOAD /tmp/ccQ0GsXz.ltrans9.ltrans.o
LOAD /tmp/ccQ0GsXz.ltrans10.ltrans.o
LOAD /tmp/ccQ0GsXz.ltrans11.ltrans.o
LOAD /tmp/ccQ0GsXz.ltrans12.ltrans.o
LOAD /tmp/ccQ0GsXz.ltrans13.ltrans.o
LOAD /tmp/ccQ0GsXz.ltrans14.ltrans.o
LOAD /tmp/ccQ0GsXz.ltrans15.ltrans.o
LOAD /tmp/ccQ0GsXz.ltrans16.ltrans.o
LOAD /tmp/ccQ0GsXz.ltrans17.ltrans.o
LOAD /tmp/ccQ0GsXz.ltrans18.ltrans.o
LOAD /tmp/ccQ0GsXz.ltrans19.ltrans.o
LOAD /tmp/ccQ0GsXz.ltrans20.ltrans.o
LOAD /tmp/ccQ0GsXz.ltrans21.ltrans.o
START GROUP
LOAD /root/edk2/Build/OvmfX64/RELEASE_GCC5/X64/MdePkg/Library/DxePcdLib/DxePcdLib/OUTPUT/DxePcdLib.lib
LOAD /root/edk2/Build/OvmfX64/RELEASE_GCC5/X64/MdePkg/Library/BaseLib/BaseLib/OUTPUT/BaseLib.lib
LOAD /root/edk2/Build/OvmfX64/RELEASE_GCC5/X64/MdePkg/Library/BaseMemoryLibRepStr/BaseMemoryLibRepStr/OUTPUT/BaseMemoryLibRepStr.lib
LOAD /root/edk2/Build/OvmfX64/RELEASE_GCC5/X64/MdePkg/Library/BaseDebugPrintErrorLevelLib/BaseDebugPrintErrorLevelLib/OUTPUT/BaseDebugPrintErrorLevelLib.lib
LOAD /root/edk2/Build/OvmfX64/RELEASE_GCC5/X64/MdePkg/Library/BaseIoLibIntrinsic/BaseIoLibIntrinsicSev/OUTPUT/BaseIoLibIntrinsicSev.lib
LOAD /root/edk2/Build/OvmfX64/RELEASE_GCC5/X64/MdePkg/Library/BasePrintLib/BasePrintLib/OUTPUT/BasePrintLib.lib
LOAD /root/edk2/Build/OvmfX64/RELEASE_GCC5/X64/OvmfPkg/Library/PlatformDebugLibIoPort/PlatformDebugLibIoPort/OUTPUT/PlatformDebugLibIoPort.lib
LOAD /root/edk2/Build/OvmfX64/RELEASE_GCC5/X64/MdePkg/Library/UefiBootServicesTableLib/UefiBootServicesTableLib/OUTPUT/UefiBootServicesTableLib.lib
LOAD /root/edk2/Build/OvmfX64/RELEASE_GCC5/X64/MdePkg/Library/BasePciCf8Lib/BasePciCf8Lib/OUTPUT/BasePciCf8Lib.lib
LOAD /root/edk2/Build/OvmfX64/RELEASE_GCC5/X64/MdeModulePkg/Library/DxeCoreMemoryAllocationLib/DxeCoreMemoryAllocationLib/OUTPUT/DxeCoreMemoryAllocationLib.lib
LOAD /root/edk2/Build/OvmfX64/RELEASE_GCC5/X64/MdePkg/Library/BasePciLibCf8/BasePciLibCf8/OUTPUT/BasePciLibCf8.lib
LOAD /root/edk2/Build/OvmfX64/RELEASE_GCC5/X64/MdePkg/Library/UefiRuntimeServicesTableLib/UefiRuntimeServicesTableLib/OUTPUT/UefiRuntimeServicesTableLib.lib
LOAD /root/edk2/Build/OvmfX64/RELEASE_GCC5/X64/MdePkg/Library/UefiDevicePathLib/UefiDevicePathLib/OUTPUT/UefiDevicePathLib.lib
LOAD /root/edk2/Build/OvmfX64/RELEASE_GCC5/X64/OvmfPkg/Library/AcpiTimerLib/BaseAcpiTimerLib/OUTPUT/BaseAcpiTimerLib.lib
LOAD /root/edk2/Build/OvmfX64/RELEASE_GCC5/X64/MdePkg/Library/DxeCoreEntryPoint/DxeCoreEntryPoint/OUTPUT/DxeCoreEntryPoint.lib
LOAD /root/edk2/Build/OvmfX64/RELEASE_GCC5/X64/MdePkg/Library/BasePeCoffExtraActionLibNull/BasePeCoffExtraActionLibNull/OUTPUT/PeCoffExtraActionLibNull.lib
LOAD /root/edk2/Build/OvmfX64/RELEASE_GCC5/X64/MdePkg/Library/UefiLib/UefiLib/OUTPUT/UefiLib.lib
LOAD /root/edk2/Build/OvmfX64/RELEASE_GCC5/X64/UefiCpuPkg/Library/BaseXApicX2ApicLib/BaseXApicX2ApicLib/OUTPUT/BaseXApicX2ApicLib.lib
LOAD /root/edk2/Build/OvmfX64/RELEASE_GCC5/X64/MdePkg/Library/BaseSynchronizationLib/BaseSynchronizationLib/OUTPUT/BaseSynchronizationLib.lib
LOAD /root/edk2/Build/OvmfX64/RELEASE_GCC5/X64/PcAtChipsetPkg/Library/SerialIoLib/SerialIoLib/OUTPUT/PcAtSerialPortLib.lib
LOAD /root/edk2/Build/OvmfX64/RELEASE_GCC5/X64/MdePkg/Library/BasePeCoffGetEntryPointLib/BasePeCoffGetEntryPointLib/OUTPUT/BasePeCoffGetEntryPointLib.lib
LOAD /root/edk2/Build/OvmfX64/RELEASE_GCC5/X64/MdePkg/Library/DxeExtractGuidedSectionLib/DxeExtractGuidedSectionLib/OUTPUT/DxeExtractGuidedSectionLib.lib
LOAD /root/edk2/Build/OvmfX64/RELEASE_GCC5/X64/MdePkg/Library/BaseCacheMaintenanceLib/BaseCacheMaintenanceLib/OUTPUT/BaseCacheMaintenanceLib.lib
LOAD /root/edk2/Build/OvmfX64/RELEASE_GCC5/X64/MdePkg/Library/BaseUefiDecompressLib/BaseUefiDecompressLib/OUTPUT/BaseUefiDecompressLib.lib
LOAD /root/edk2/Build/OvmfX64/RELEASE_GCC5/X64/MdePkg/Library/BasePerformanceLibNull/BasePerformanceLibNull/OUTPUT/BasePerformanceLibNull.lib
LOAD /root/edk2/Build/OvmfX64/RELEASE_GCC5/X64/MdePkg/Library/DxeCoreHobLib/DxeCoreHobLib/OUTPUT/DxeCoreHobLib.lib
LOAD /root/edk2/Build/OvmfX64/RELEASE_GCC5/X64/MdePkg/Library/BasePeCoffLib/BasePeCoffLib/OUTPUT/BasePeCoffLib.lib
LOAD /root/edk2/Build/OvmfX64/RELEASE_GCC5/X64/MdeModulePkg/Library/DxeReportStatusCodeLib/DxeReportStatusCodeLib/OUTPUT/DxeReportStatusCodeLib.lib
LOAD /root/edk2/Build/OvmfX64/RELEASE_GCC5/X64/MdePkg/Library/DxeServicesLib/DxeServicesLib/OUTPUT/DxeServicesLib.lib
LOAD /root/edk2/Build/OvmfX64/RELEASE_GCC5/X64/MdeModulePkg/Library/DebugAgentLibNull/DebugAgentLibNull/OUTPUT/DebugAgentLibNull.lib
LOAD /root/edk2/Build/OvmfX64/RELEASE_GCC5/X64/UefiCpuPkg/Library/CpuExceptionHandlerLib/DxeCpuExceptionHandlerLib/OUTPUT/DxeCpuExceptionHandlerLib.lib
LOAD /root/edk2/Build/OvmfX64/RELEASE_GCC5/X64/MdeModulePkg/Library/LzmaCustomDecompressLib/LzmaCustomDecompressLib/OUTPUT/LzmaDecompressLib.lib
LOAD /root/edk2/Build/OvmfX64/RELEASE_GCC5/X64/MdeModulePkg/Core/Dxe/DxeMain/OUTPUT/DxeCore.lib
END GROUP
                0x0000000000000228                PECOFF_HEADER_SIZE = 0x228
                0x0000000000000228                . = PECOFF_HEADER_SIZE

.text           0x0000000000000240    0x15668
 *(.text .text.* .stub .gnu.linkonce.t.*)
 .text.DxeMain  0x0000000000000240     0x153e /tmp/ccQ0GsXz.ltrans0.ltrans.o
                0x0000000000000240                DxeMain
 .text.CoreLoadImageCommon.part.1.lto_priv.79
                0x000000000000177e     0x200b /tmp/ccQ0GsXz.ltrans1.ltrans.o
                0x000000000000177e                CoreLoadImageCommon.part.1.lto_priv.79
 .text.InvalidateInstructionCacheRange
                0x0000000000003789        0x4 /tmp/ccQ0GsXz.ltrans2.ltrans.o
                0x0000000000003789                InvalidateInstructionCacheRange
 .text.EfiEventEmptyFunction
                0x000000000000378d        0x1 /tmp/ccQ0GsXz.ltrans2.ltrans.o
                0x000000000000378d                EfiEventEmptyFunction
 .text.LocalApicBaseAddressMsrSupported
                0x000000000000378e       0x3d /tmp/ccQ0GsXz.ltrans2.ltrans.o
 .text.GetApicMode
                0x00000000000037cb       0x28 /tmp/ccQ0GsXz.ltrans2.ltrans.o
 .text.CopyMem  0x00000000000037f3       0x13 /tmp/ccQ0GsXz.ltrans2.ltrans.o
                0x00000000000037f3                CopyMem
 .text.PeCoffLoaderImageReadFromMemory
                0x0000000000003806       0x19 /tmp/ccQ0GsXz.ltrans2.ltrans.o
                0x0000000000003806                PeCoffLoaderImageReadFromMemory
 .text.SetMem   0x000000000000381f       0x12 /tmp/ccQ0GsXz.ltrans2.ltrans.o
                0x000000000000381f                SetMem
 .text.PeCoffLoaderGetImageInfo.part.0.lto_priv.77
                0x0000000000003831      0x8b8 /tmp/ccQ0GsXz.ltrans2.ltrans.o
                0x0000000000003831                PeCoffLoaderGetImageInfo.part.0.lto_priv.77
 .text.PeCoffLoaderImageAddress
                0x00000000000040e9       0x20 /tmp/ccQ0GsXz.ltrans2.ltrans.o
                0x00000000000040e9                PeCoffLoaderImageAddress
 .text.GetNextHob
                0x0000000000004109       0x1d /tmp/ccQ0GsXz.ltrans2.ltrans.o
                0x0000000000004109                GetNextHob
 .text.PerformanceMeasurementEnabled
                0x0000000000004126        0xa /tmp/ccQ0GsXz.ltrans2.ltrans.o
                0x0000000000004126                PerformanceMeasurementEnabled
 .text.MakeTable
                0x0000000000004130      0x28a /tmp/ccQ0GsXz.ltrans2.ltrans.o
                0x0000000000004130                MakeTable
 .text.FillBuf  0x00000000000043ba       0x62 /tmp/ccQ0GsXz.ltrans2.ltrans.o
                0x00000000000043ba                FillBuf
 .text.GetBits  0x000000000000441c       0x1c /tmp/ccQ0GsXz.ltrans2.ltrans.o
                0x000000000000441c                GetBits
 .text.ReadPTLen
                0x0000000000004438      0x14f /tmp/ccQ0GsXz.ltrans2.ltrans.o
                0x0000000000004438                ReadPTLen
 .text.PeCoffLoaderGetPdbPointer
                0x0000000000004587      0x116 /tmp/ccQ0GsXz.ltrans2.ltrans.o
                0x0000000000004587                PeCoffLoaderGetPdbPointer
 .text.PeCoffLoaderGetEntryPoint
                0x000000000000469d       0x4c /tmp/ccQ0GsXz.ltrans2.ltrans.o
                0x000000000000469d                PeCoffLoaderGetEntryPoint
 .text.GetApicId
                0x00000000000046e9       0xfe /tmp/ccQ0GsXz.ltrans2.ltrans.o
                0x00000000000046e9                GetApicId
 .text.EfiCreateProtocolNotifyEvent
                0x00000000000047e7       0x55 /tmp/ccQ0GsXz.ltrans2.ltrans.o
                0x00000000000047e7                EfiCreateProtocolNotifyEvent
 .text.IsDevicePathEnd
                0x000000000000483c       0x11 /tmp/ccQ0GsXz.ltrans2.ltrans.o
                0x000000000000483c                IsDevicePathEnd
 .text.IsDevicePathValid
                0x000000000000484d       0x5e /tmp/ccQ0GsXz.ltrans2.ltrans.o
                0x000000000000484d                IsDevicePathValid
 .text.UefiDevicePathLibGetDevicePathSize
                0x00000000000048ab       0x43 /tmp/ccQ0GsXz.ltrans2.ltrans.o
                0x00000000000048ab                UefiDevicePathLibGetDevicePathSize
 .text.InternalAllocatePool
                0x00000000000048ee       0x38 /tmp/ccQ0GsXz.ltrans2.ltrans.o
                0x00000000000048ee                InternalAllocatePool
 .text.AllocateCopyPool
                0x0000000000004926       0x3b /tmp/ccQ0GsXz.ltrans2.ltrans.o
                0x0000000000004926                AllocateCopyPool
 .text.UefiDevicePathLibDuplicateDevicePath
                0x0000000000004961       0x2a /tmp/ccQ0GsXz.ltrans2.ltrans.o
                0x0000000000004961                UefiDevicePathLibDuplicateDevicePath
 .text.AllocateRuntimeCopyPool
                0x000000000000498b       0x3b /tmp/ccQ0GsXz.ltrans2.ltrans.o
                0x000000000000498b                AllocateRuntimeCopyPool
 .text.AllocatePool
                0x00000000000049c6       0x14 /tmp/ccQ0GsXz.ltrans2.ltrans.o
                0x00000000000049c6                AllocatePool
 .text.UefiDevicePathLibAppendDevicePath
                0x00000000000049da       0x9c /tmp/ccQ0GsXz.ltrans2.ltrans.o
                0x00000000000049da                UefiDevicePathLibAppendDevicePath
 .text.DebugCodeEnabled
                0x0000000000004a76        0x3 /tmp/ccQ0GsXz.ltrans2.ltrans.o
                0x0000000000004a76                DebugCodeEnabled
 .text.DebugClearMemory
                0x0000000000004a79        0xb /tmp/ccQ0GsXz.ltrans2.ltrans.o
                0x0000000000004a79                DebugClearMemory
 .text.BasePrintLibFillBuffer
                0x0000000000004a84       0x2e /tmp/ccQ0GsXz.ltrans2.ltrans.o
                0x0000000000004a84                BasePrintLibFillBuffer
 .text.CompareGuid
                0x0000000000004ab2       0x19 /tmp/ccQ0GsXz.ltrans2.ltrans.o
                0x0000000000004ab2                CompareGuid
 .text.GetNextGuidHob
                0x0000000000004acb       0x3b /tmp/ccQ0GsXz.ltrans2.ltrans.o
                0x0000000000004acb                GetNextGuidHob
 .text.CopyGuid
                0x0000000000004b06       0x12 /tmp/ccQ0GsXz.ltrans2.ltrans.o
                0x0000000000004b06                CopyGuid
 .text.ZeroMem  0x0000000000004b18        0xe /tmp/ccQ0GsXz.ltrans2.ltrans.o
                0x0000000000004b18                ZeroMem
 .text.InternalAllocateZeroPool
                0x0000000000004b26       0x23 /tmp/ccQ0GsXz.ltrans2.ltrans.o
                0x0000000000004b26                InternalAllocateZeroPool
 .text.ReallocatePool
                0x0000000000004b49       0x5c /tmp/ccQ0GsXz.ltrans2.ltrans.o
 .text.ReallocateExtractHandlerTable
                0x0000000000004ba5       0xd1 /tmp/ccQ0GsXz.ltrans2.ltrans.o
                0x0000000000004ba5                ReallocateExtractHandlerTable
 .text.AllocateZeroPool
                0x0000000000004c76       0x14 /tmp/ccQ0GsXz.ltrans2.ltrans.o
                0x0000000000004c76                AllocateZeroPool
 .text.GetInterruptState
                0x0000000000004c8a        0xa /tmp/ccQ0GsXz.ltrans2.ltrans.o
                0x0000000000004c8a                GetInterruptState
 .text.RemoveEntryList
                0x0000000000004c94       0x19 /tmp/ccQ0GsXz.ltrans2.ltrans.o
                0x0000000000004c94                RemoveEntryList
 .text.SetInterruptState
                0x0000000000004cad        0xb /tmp/ccQ0GsXz.ltrans2.ltrans.o
                0x0000000000004cad                SetInterruptState
 .text.CpuDeadLoop
                0x0000000000004cb8       0x1c /tmp/ccQ0GsXz.ltrans2.ltrans.o
                0x0000000000004cb8                CpuDeadLoop
 .text._ModuleEntryPoint
                0x0000000000004cd4       0x10 /tmp/ccQ0GsXz.ltrans2.ltrans.o
                0x0000000000004cd4                _ModuleEntryPoint
 .text.InternalAssertJumpBuffer
                0x0000000000004ce4        0x1 /tmp/ccQ0GsXz.ltrans2.ltrans.o
                0x0000000000004ce4                InternalAssertJumpBuffer
 .text.GetFileNameFromFilePath
                0x0000000000004ce5       0x40 /tmp/ccQ0GsXz.ltrans3.ltrans.o
 .text.CoreGetMemoryMap
                0x0000000000004d25      0x3c8 /tmp/ccQ0GsXz.ltrans3.ltrans.o
                0x0000000000004d25                CoreGetMemoryMap
 .text.GetMemoryProfileAllocInfoFromAddress
                0x00000000000050ed       0x50 /tmp/ccQ0GsXz.ltrans3.ltrans.o
                0x00000000000050ed                GetMemoryProfileAllocInfoFromAddress
 .text.GetMemoryProfileDriverInfoFromAddress
                0x000000000000513d       0x36 /tmp/ccQ0GsXz.ltrans3.ltrans.o
                0x000000000000513d                GetMemoryProfileDriverInfoFromAddress
 .text.CoreUpdateProfileAllocate
                0x0000000000005173      0x234 /tmp/ccQ0GsXz.ltrans3.ltrans.o
                0x0000000000005173                CoreUpdateProfileAllocate
 .text.NeedRecordThisDriver
                0x00000000000053a7       0xa0 /tmp/ccQ0GsXz.ltrans3.ltrans.o
                0x00000000000053a7                NeedRecordThisDriver
 .text.InternalPeCoffGetEntryPoint
                0x0000000000005447       0x46 /tmp/ccQ0GsXz.ltrans3.ltrans.o
                0x0000000000005447                InternalPeCoffGetEntryPoint
 .text.UnregisterMemoryProfileImage
                0x000000000000548d      0x174 /tmp/ccQ0GsXz.ltrans3.ltrans.o
                0x000000000000548d                UnregisterMemoryProfileImage
 .text.BuildDriverInfo
                0x0000000000005601      0x25f /tmp/ccQ0GsXz.ltrans3.ltrans.o
                0x0000000000005601                BuildDriverInfo
 .text.RegisterMemoryProfileImage
                0x0000000000005860       0x9b /tmp/ccQ0GsXz.ltrans3.ltrans.o
                0x0000000000005860                RegisterMemoryProfileImage
 .text.PeCoffLoaderGetPeHeaderMagicValue
                0x00000000000058fb       0x19 /tmp/ccQ0GsXz.ltrans3.ltrans.o
                0x00000000000058fb                PeCoffLoaderGetPeHeaderMagicValue
 .text.InternalPeCoffGetSubsystem
                0x0000000000005914       0x40 /tmp/ccQ0GsXz.ltrans3.ltrans.o
                0x0000000000005914                InternalPeCoffGetSubsystem
 .text.CoreConvertPages
                0x0000000000005954       0x12 /tmp/ccQ0GsXz.ltrans3.ltrans.o
                0x0000000000005954                CoreConvertPages
 .text.CoreInternalAllocatePages.part.3.lto_priv.62
                0x0000000000005966       0xe9 /tmp/ccQ0GsXz.ltrans3.ltrans.o
                0x0000000000005966                CoreInternalAllocatePages.part.3.lto_priv.62
 .text.CoreAllocatePages
                0x0000000000005a4f       0xfd /tmp/ccQ0GsXz.ltrans3.ltrans.o
                0x0000000000005a4f                CoreAllocatePages
 .text.CoreFreePages
                0x0000000000005b4c       0xff /tmp/ccQ0GsXz.ltrans3.ltrans.o
                0x0000000000005b4c                CoreFreePages
 .text.CoreMergeGcdMapEntry
                0x0000000000005c4b       0x8d /tmp/ccQ0GsXz.ltrans4.ltrans.o
 .text.CoreProtocolsPerHandle
                0x0000000000005cd8       0xcf /tmp/ccQ0GsXz.ltrans4.ltrans.o
                0x0000000000005cd8                CoreProtocolsPerHandle
 .text.CoreGetProtocolInterface
                0x0000000000005da7       0x5f /tmp/ccQ0GsXz.ltrans4.ltrans.o
 .text.CoreOpenProtocolInformation
                0x0000000000005e06       0xe2 /tmp/ccQ0GsXz.ltrans4.ltrans.o
                0x0000000000005e06                CoreOpenProtocolInformation
 .text.CoreCloseProtocol
                0x0000000000005ee8       0xdb /tmp/ccQ0GsXz.ltrans4.ltrans.o
                0x0000000000005ee8                CoreCloseProtocol
 .text.CoreOpenProtocol
                0x0000000000005fc3      0x2dd /tmp/ccQ0GsXz.ltrans4.ltrans.o
                0x0000000000005fc3                CoreOpenProtocol
 .text.CoreHandleProtocol
                0x00000000000062a0       0x26 /tmp/ccQ0GsXz.ltrans4.ltrans.o
                0x00000000000062a0                CoreHandleProtocol
 .text.CoreSearchGcdMapEntry
                0x00000000000062c6       0x56 /tmp/ccQ0GsXz.ltrans4.ltrans.o
                0x00000000000062c6                CoreSearchGcdMapEntry
 .text.CoreCleanupGcdMapEntry
                0x000000000000631c       0x70 /tmp/ccQ0GsXz.ltrans4.ltrans.o
                0x000000000000631c                CoreCleanupGcdMapEntry
 .text.CoreInsertGcdMapEntry
                0x000000000000638c       0xbe /tmp/ccQ0GsXz.ltrans4.ltrans.o
                0x000000000000638c                CoreInsertGcdMapEntry
 .text.CoreAllocateGcdMapEntry
                0x000000000000644a       0x86 /tmp/ccQ0GsXz.ltrans4.ltrans.o
                0x000000000000644a                CoreAllocateGcdMapEntry
 .text.CoreReleaseGcdMemoryLock
                0x00000000000064d0        0xc /tmp/ccQ0GsXz.ltrans4.ltrans.o
                0x00000000000064d0                CoreReleaseGcdMemoryLock
 .text.CoreAcquireGcdMemoryLock
                0x00000000000064dc        0xc /tmp/ccQ0GsXz.ltrans4.ltrans.o
                0x00000000000064dc                CoreAcquireGcdMemoryLock
 .text.CoreDumpGcdIoSpaceMap
                0x00000000000064e8       0x2b /tmp/ccQ0GsXz.ltrans4.ltrans.o
                0x00000000000064e8                CoreDumpGcdIoSpaceMap
 .text.CoreDumpGcdMemorySpaceMap
                0x0000000000006513       0x2b /tmp/ccQ0GsXz.ltrans4.ltrans.o
                0x0000000000006513                CoreDumpGcdMemorySpaceMap
 .text.CoreConvertSpace
                0x000000000000653e      0x468 /tmp/ccQ0GsXz.ltrans4.ltrans.o
                0x000000000000653e                CoreConvertSpace
 .text.CoreInstallProtocolInterfaceNotify.part.3.lto_priv.56
                0x00000000000069a6      0x1da /tmp/ccQ0GsXz.ltrans4.ltrans.o
                0x00000000000069a6                CoreInstallProtocolInterfaceNotify.part.3.lto_priv.56
 .text.CoreInstallProtocolInterface
                0x0000000000006b80       0x3c /tmp/ccQ0GsXz.ltrans4.ltrans.o
                0x0000000000006b80                CoreInstallProtocolInterface
 .text.CoreDisconnectControllersUsingProtocolInterface
                0x0000000000006bbc       0xe1 /tmp/ccQ0GsXz.ltrans4.ltrans.o
                0x0000000000006bbc                CoreDisconnectControllersUsingProtocolInterface
 .text.CoreUninstallProtocolInterface
                0x0000000000006c9d       0xfd /tmp/ccQ0GsXz.ltrans4.ltrans.o
                0x0000000000006c9d                CoreUninstallProtocolInterface
 .text.CoreUninstallMultipleProtocolInterfaces
                0x0000000000006d9a       0xa0 /tmp/ccQ0GsXz.ltrans4.ltrans.o
                0x0000000000006d9a                CoreUninstallMultipleProtocolInterfaces
 .text.CoreInstallMultipleProtocolInterfaces
                0x0000000000006e3a      0x160 /tmp/ccQ0GsXz.ltrans4.ltrans.o
                0x0000000000006e3a                CoreInstallMultipleProtocolInterfaces
 .text.DxeMainUefiDecompressGetInfo
                0x0000000000006f9a       0x52 /tmp/ccQ0GsXz.ltrans5.ltrans.o
                0x0000000000006f9a                DxeMainUefiDecompressGetInfo
 .text.CoreEfiNotAvailableYetArg5
                0x0000000000006fec        0xb /tmp/ccQ0GsXz.ltrans5.ltrans.o
                0x0000000000006fec                CoreEfiNotAvailableYetArg5
 .text.CoreEfiNotAvailableYetArg4
                0x0000000000006ff7        0xb /tmp/ccQ0GsXz.ltrans5.ltrans.o
                0x0000000000006ff7                CoreEfiNotAvailableYetArg4
 .text.CoreEfiNotAvailableYetArg3
                0x0000000000007002        0xb /tmp/ccQ0GsXz.ltrans5.ltrans.o
                0x0000000000007002                CoreEfiNotAvailableYetArg3
 .text.CoreEfiNotAvailableYetArg2
                0x000000000000700d        0xb /tmp/ccQ0GsXz.ltrans5.ltrans.o
                0x000000000000700d                CoreEfiNotAvailableYetArg2
 .text.CoreEfiNotAvailableYetArg1
                0x0000000000007018        0xb /tmp/ccQ0GsXz.ltrans5.ltrans.o
                0x0000000000007018                CoreEfiNotAvailableYetArg1
 .text.CoreFindFreePagesI.part.0.constprop.44
                0x0000000000007023      0x17e /tmp/ccQ0GsXz.ltrans5.ltrans.o
 .text.DxeMainUefiDecompress
                0x00000000000071a1      0x441 /tmp/ccQ0GsXz.ltrans5.ltrans.o
                0x00000000000071a1                DxeMainUefiDecompress
 .text.BasePrintLibSPrint.constprop.47
                0x00000000000075e2       0x27 /tmp/ccQ0GsXz.ltrans5.ltrans.o
                0x00000000000075e2                BasePrintLibSPrint.constprop.47
 .text.FindFreePages.constprop.41
                0x0000000000007609      0x1b9 /tmp/ccQ0GsXz.ltrans5.ltrans.o
                0x0000000000007609                FindFreePages.constprop.41
 .text.CoreAllocatePoolPages.constprop.42
                0x00000000000077c2       0x4b /tmp/ccQ0GsXz.ltrans5.ltrans.o
                0x00000000000077c2                CoreAllocatePoolPages.constprop.42
 .text.CoreAllocatePoolPagesI.constprop.40
                0x000000000000780d       0x7b /tmp/ccQ0GsXz.ltrans5.ltrans.o
                0x000000000000780d                CoreAllocatePoolPagesI.constprop.40
 .text.MergeMemoryMapDescriptor.constprop.39
                0x0000000000007888       0x6b /tmp/ccQ0GsXz.ltrans5.ltrans.o
                0x0000000000007888                MergeMemoryMapDescriptor.constprop.39
 .text.CoreNewDebugImageInfoEntry.constprop.30
                0x00000000000078f3      0x10f /tmp/ccQ0GsXz.ltrans5.ltrans.o
                0x00000000000078f3                CoreNewDebugImageInfoEntry.constprop.30
 .text.ReportStatusCodeEx.constprop.29
                0x0000000000007a02      0x154 /tmp/ccQ0GsXz.ltrans5.ltrans.o
                0x0000000000007a02                ReportStatusCodeEx.constprop.29
 .text.FindChildNode.constprop.1
                0x0000000000007b56      0x1b6 /tmp/ccQ0GsXz.ltrans5.ltrans.o
                0x0000000000007b56                FindChildNode.constprop.1
 .text.CalculateEfiHdrCrc
                0x0000000000007d0c       0x3c /tmp/ccQ0GsXz.ltrans5.ltrans.o
                0x0000000000007d0c                CalculateEfiHdrCrc
 .text.CoreExitBootServices
                0x0000000000007d48      0x199 /tmp/ccQ0GsXz.ltrans5.ltrans.o
                0x0000000000007d48                CoreExitBootServices
 .text.FvSetVolumeInfo
                0x0000000000007ee1        0xb /tmp/ccQ0GsXz.ltrans6.ltrans.o
                0x0000000000007ee1                FvSetVolumeInfo
 .text.FvGetVolumeInfo
                0x0000000000007eec        0xb /tmp/ccQ0GsXz.ltrans6.ltrans.o
                0x0000000000007eec                FvGetVolumeInfo
 .text.FwVolBlockSetAttributes
                0x0000000000007ef7        0xb /tmp/ccQ0GsXz.ltrans6.ltrans.o
 .text.FvSetVolumeAttributes
                0x0000000000007f02        0xb /tmp/ccQ0GsXz.ltrans6.ltrans.o
                0x0000000000007f02                FvSetVolumeAttributes
 .text.FvGetVolumeAttributes
                0x0000000000007f0d       0x28 /tmp/ccQ0GsXz.ltrans6.ltrans.o
                0x0000000000007f0d                FvGetVolumeAttributes
 .text.FfsAttributes2FvFileAttributes
                0x0000000000007f35       0x2f /tmp/ccQ0GsXz.ltrans6.ltrans.o
 .text.FvWriteFile
                0x0000000000007f64        0xb /tmp/ccQ0GsXz.ltrans6.ltrans.o
                0x0000000000007f64                FvWriteFile
 .text.FwVolBlockGetBlockSize
                0x0000000000007f6f       0x49 /tmp/ccQ0GsXz.ltrans6.ltrans.o
 .text.FwVolBlockGetPhysicalAddress
                0x0000000000007fb8       0x1e /tmp/ccQ0GsXz.ltrans6.ltrans.o
 .text.FwVolBlockWriteBlock
                0x0000000000007fd6        0xb /tmp/ccQ0GsXz.ltrans6.ltrans.o
 .text.FwVolBlockEraseBlock
                0x0000000000007fe1       0x1a /tmp/ccQ0GsXz.ltrans6.ltrans.o
 .text.FwVolBlockGetAttributes
                0x0000000000007ffb        0xb /tmp/ccQ0GsXz.ltrans6.ltrans.o
 .text.FwVolBlockReadBlock
                0x0000000000008006       0x8c /tmp/ccQ0GsXz.ltrans6.ltrans.o
 .text.FvGetNextFile
                0x0000000000008092      0x106 /tmp/ccQ0GsXz.ltrans6.ltrans.o
                0x0000000000008092                FvGetNextFile
 .text.FvReadFile
                0x0000000000008198      0x1b7 /tmp/ccQ0GsXz.ltrans6.ltrans.o
                0x0000000000008198                FvReadFile
 .text.FvReadFileSection
                0x000000000000834f      0x2b6 /tmp/ccQ0GsXz.ltrans6.ltrans.o
                0x000000000000834f                FvReadFileSection
 .text.DumpGuardedMemoryBitmap.part.5
                0x0000000000008605      0x1b3 /tmp/ccQ0GsXz.ltrans6.ltrans.o
 .text.ReadFvbData
                0x00000000000087b8      0x155 /tmp/ccQ0GsXz.ltrans6.ltrans.o
                0x00000000000087b8                ReadFvbData
 .text.GetFwVolHeader
                0x000000000000890d      0x138 /tmp/ccQ0GsXz.ltrans6.ltrans.o
                0x000000000000890d                GetFwVolHeader
 .text.VerifyFvHeaderChecksum
                0x0000000000008a45       0x20 /tmp/ccQ0GsXz.ltrans6.ltrans.o
                0x0000000000008a45                VerifyFvHeaderChecksum
 .text.GetFileState
                0x0000000000008a65       0x22 /tmp/ccQ0GsXz.ltrans6.ltrans.o
                0x0000000000008a65                GetFileState
 .text.ProduceFVBProtocolOnBuffer
                0x0000000000008a87      0x21f /tmp/ccQ0GsXz.ltrans6.ltrans.o
                0x0000000000008a87                ProduceFVBProtocolOnBuffer
 .text.CoreProcessFirmwareVolume
                0x0000000000008ca6       0x6e /tmp/ccQ0GsXz.ltrans6.ltrans.o
                0x0000000000008ca6                CoreProcessFirmwareVolume
 .text.AdjustMemoryF.part.2.lto_priv.60
                0x0000000000008d14       0x84 /tmp/ccQ0GsXz.ltrans6.ltrans.o
                0x0000000000008d14                AdjustMemoryF.part.2.lto_priv.60
 .text.UnsetGuardForMemory.part.1.lto_priv.61
                0x0000000000008d98      0x17d /tmp/ccQ0GsXz.ltrans6.ltrans.o
                0x0000000000008d98                UnsetGuardForMemory.part.1.lto_priv.61
 .text.DumpGuardedMemoryBitmap
                0x0000000000008f15       0x20 /tmp/ccQ0GsXz.ltrans6.ltrans.o
                0x0000000000008f15                DumpGuardedMemoryBitmap
 .text.ProfileProtocolSetRecordingState
                0x0000000000008f35       0x1d /tmp/ccQ0GsXz.ltrans7.ltrans.o
                0x0000000000008f35                ProfileProtocolSetRecordingState
 .text.ProfileProtocolGetRecordingState
                0x0000000000008f52       0x2e /tmp/ccQ0GsXz.ltrans7.ltrans.o
                0x0000000000008f52                ProfileProtocolGetRecordingState
 .text.ProfileProtocolUnregisterImage
                0x0000000000008f80       0x6e /tmp/ccQ0GsXz.ltrans7.ltrans.o
                0x0000000000008f80                ProfileProtocolUnregisterImage
 .text.ProfileProtocolRegisterImage
                0x0000000000008fee       0x91 /tmp/ccQ0GsXz.ltrans7.ltrans.o
                0x0000000000008fee                ProfileProtocolRegisterImage
 .text.ProfileProtocolGetData
                0x000000000000907f      0x183 /tmp/ccQ0GsXz.ltrans7.ltrans.o
                0x000000000000907f                ProfileProtocolGetData
 .text.CoreUpdateProfileFree
                0x0000000000009202      0x1f7 /tmp/ccQ0GsXz.ltrans7.ltrans.o
 .text.IsMemoryTypeToGuard
                0x00000000000093f9       0xb2 /tmp/ccQ0GsXz.ltrans7.ltrans.o
                0x00000000000093f9                IsMemoryTypeToGuard
 .text.UnsetGuardPage
                0x00000000000094ab       0x44 /tmp/ccQ0GsXz.ltrans7.ltrans.o
                0x00000000000094ab                UnsetGuardPage
 .text.SetGuardPage
                0x00000000000094ef       0x38 /tmp/ccQ0GsXz.ltrans7.ltrans.o
                0x00000000000094ef                SetGuardPage
 .text.FindGuardedMemoryMap
                0x0000000000009527      0x1d0 /tmp/ccQ0GsXz.ltrans7.ltrans.o
                0x0000000000009527                FindGuardedMemoryMap
 .text.IsMemoryGuarded
                0x00000000000096f7       0x40 /tmp/ccQ0GsXz.ltrans7.ltrans.o
                0x00000000000096f7                IsMemoryGuarded
 .text.GetGuardedMemoryBits
                0x0000000000009737       0xee /tmp/ccQ0GsXz.ltrans7.ltrans.o
                0x0000000000009737                GetGuardedMemoryBits
 .text.IsGuardPage
                0x0000000000009825       0x2b /tmp/ccQ0GsXz.ltrans7.ltrans.o
                0x0000000000009825                IsGuardPage
 .text.CoreConvertPagesWithGuard
                0x0000000000009850       0xa8 /tmp/ccQ0GsXz.ltrans7.ltrans.o
                0x0000000000009850                CoreConvertPagesWithGuard
 .text.SetGuardForMemory
                0x00000000000098f8      0x159 /tmp/ccQ0GsXz.ltrans7.ltrans.o
                0x00000000000098f8                SetGuardForMemory
 .text.CoreUpdateProfile
                0x0000000000009a51      0x14d /tmp/ccQ0GsXz.ltrans7.ltrans.o
                0x0000000000009a51                CoreUpdateProfile
 .text.ProfileProtocolRecord
                0x0000000000009b9e       0x1d /tmp/ccQ0GsXz.ltrans7.ltrans.o
                0x0000000000009b9e                ProfileProtocolRecord
 .text.CoreConnectController
                0x0000000000009bbb      0x60f /tmp/ccQ0GsXz.ltrans8.ltrans.o
                0x0000000000009bbb                CoreConnectController
 .text.DisableNullDetectionAtTheEndOfDxe
                0x000000000000a1ca       0x5b /tmp/ccQ0GsXz.ltrans8.ltrans.o
                0x000000000000a1ca                DisableNullDetectionAtTheEndOfDxe
 .text.CoreReleaseLock
                0x000000000000a225       0x19 /tmp/ccQ0GsXz.ltrans8.ltrans.o
                0x000000000000a225                CoreReleaseLock
 .text.CoreAcquireLock
                0x000000000000a23e       0x21 /tmp/ccQ0GsXz.ltrans8.ltrans.o
                0x000000000000a23e                CoreAcquireLock
 .text.CoreAcquireLockOrFail
                0x000000000000a25f       0x34 /tmp/ccQ0GsXz.ltrans8.ltrans.o
                0x000000000000a25f                CoreAcquireLockOrFail
 .text.ApplyMemoryProtectionPolicy
                0x000000000000a293       0xf1 /tmp/ccQ0GsXz.ltrans8.ltrans.o
                0x000000000000a293                ApplyMemoryProtectionPolicy
 .text.SortMemoryMap.lto_priv.69.lto_priv.74
                0x000000000000a384       0xa7 /tmp/ccQ0GsXz.ltrans8.ltrans.o
                0x000000000000a384                SortMemoryMap.lto_priv.69.lto_priv.74
 .text.MemoryProtectionCpuArchProtocolNotify
                0x000000000000a42b      0x607 /tmp/ccQ0GsXz.ltrans8.ltrans.o
                0x000000000000a42b                MemoryProtectionCpuArchProtocolNotify
 .text.CoreReadImageFile
                0x000000000000aa32       0x75 /tmp/ccQ0GsXz.ltrans9.ltrans.o
                0x000000000000aa32                CoreReadImageFile
 .text.CoreLoadedImageInfo
                0x000000000000aaa7       0x34 /tmp/ccQ0GsXz.ltrans9.ltrans.o
 .text.CoreLoadImageEx
                0x000000000000aadb       0xa9 /tmp/ccQ0GsXz.ltrans9.ltrans.o
                0x000000000000aadb                CoreLoadImageEx
 .text.CoreLoadImage
                0x000000000000ab84       0x9d /tmp/ccQ0GsXz.ltrans9.ltrans.o
                0x000000000000ab84                CoreLoadImage
 .text.CustomGuidedSectionExtract
                0x000000000000ac21      0x1bf /tmp/ccQ0GsXz.ltrans9.ltrans.o
                0x000000000000ac21                CustomGuidedSectionExtract
 .text.CoreUnloadAndCloseImage
                0x000000000000ade0      0x473 /tmp/ccQ0GsXz.ltrans9.ltrans.o
                0x000000000000ade0                CoreUnloadAndCloseImage
 .text.CoreUnloadImage
                0x000000000000b253       0x6c /tmp/ccQ0GsXz.ltrans9.ltrans.o
                0x000000000000b253                CoreUnloadImage
 .text.CoreUnloadImageEx
                0x000000000000b2bf        0x8 /tmp/ccQ0GsXz.ltrans9.ltrans.o
                0x000000000000b2bf                CoreUnloadImageEx
 .text.CoreExit
                0x000000000000b2c7       0xe1 /tmp/ccQ0GsXz.ltrans9.ltrans.o
                0x000000000000b2c7                CoreExit
 .text.CoreStartImage
                0x000000000000b3a8      0x26e /tmp/ccQ0GsXz.ltrans9.ltrans.o
                0x000000000000b3a8                CoreStartImage
 .text.FindStreamNode.part.2.lto_priv.59
                0x000000000000b616       0x48 /tmp/ccQ0GsXz.ltrans9.ltrans.o
                0x000000000000b616                FindStreamNode.part.2.lto_priv.59
 .text.CloseSectionStream
                0x000000000000b65e       0xd1 /tmp/ccQ0GsXz.ltrans9.ltrans.o
                0x000000000000b65e                CloseSectionStream
 .text.InstallPropertiesTable
                0x000000000000b72f       0xaf /tmp/ccQ0GsXz.ltrans10.ltrans.o
                0x000000000000b72f                InstallPropertiesTable
 .text.GetImageRecordByAddress
                0x000000000000b7de       0x34 /tmp/ccQ0GsXz.ltrans10.ltrans.o
 .text.GetPermissionAttributeForMemoryType.lto_priv.72
                0x000000000000b812       0x3c /tmp/ccQ0GsXz.ltrans10.ltrans.o
                0x000000000000b812                GetPermissionAttributeForMemoryType.lto_priv.72
 .text.SetUefiImageMemoryAttributes
                0x000000000000b84e       0x53 /tmp/ccQ0GsXz.ltrans10.ltrans.o
                0x000000000000b84e                SetUefiImageMemoryAttributes
 .text.SetPropertiesTableSectionAlignment.part.0.lto_priv.76
                0x000000000000b8a1       0x48 /tmp/ccQ0GsXz.ltrans10.ltrans.o
                0x000000000000b8a1                SetPropertiesTableSectionAlignment.part.0.lto_priv.76
 .text.IsImageRecordCodeSectionValid
                0x000000000000b8e9       0x60 /tmp/ccQ0GsXz.ltrans10.ltrans.o
                0x000000000000b8e9                IsImageRecordCodeSectionValid
 .text.SortImageRecordCodeSection
                0x000000000000b949       0x49 /tmp/ccQ0GsXz.ltrans10.ltrans.o
                0x000000000000b949                SortImageRecordCodeSection
 .text.ProtectUefiImage
                0x000000000000b992      0x2fa /tmp/ccQ0GsXz.ltrans10.ltrans.o
                0x000000000000b992                ProtectUefiImage
 .text.MergeMemoryMap
                0x000000000000bc8c       0xa0 /tmp/ccQ0GsXz.ltrans10.ltrans.o
                0x000000000000bc8c                MergeMemoryMap
 .text.CoreGetMemoryMapWithSeparatedImageSection
                0x000000000000bd2c      0x661 /tmp/ccQ0GsXz.ltrans10.ltrans.o
 .text.InstallMemoryAttributesTable
                0x000000000000c38d      0x1fa /tmp/ccQ0GsXz.ltrans10.ltrans.o
 .text.InstallMemoryAttributesTableOnReadyToBoot
                0x000000000000c587       0x13 /tmp/ccQ0GsXz.ltrans10.ltrans.o
                0x000000000000c587                InstallMemoryAttributesTableOnReadyToBoot
 .text.InstallMemoryAttributesTableOnMemoryAllocation
                0x000000000000c59a       0x17 /tmp/ccQ0GsXz.ltrans10.ltrans.o
                0x000000000000c59a                InstallMemoryAttributesTableOnMemoryAllocation
 .text.LzmaDec_WriteRem
                0x000000000000c5b1       0x74 /tmp/ccQ0GsXz.ltrans11.ltrans.o
 .text.LzmaDec_DecodeReal2
                0x000000000000c625      0xc7a /tmp/ccQ0GsXz.ltrans11.ltrans.o
 .text.LzmaUefiDecompress
                0x000000000000d29f      0x4a4 /tmp/ccQ0GsXz.ltrans11.ltrans.o
                0x000000000000d29f                LzmaUefiDecompress
 .text.RemoveMemoryMapEntry
                0x000000000000d743       0x4b /tmp/ccQ0GsXz.ltrans12.ltrans.o
 .text.CoreFreeMemoryMapStack
                0x000000000000d78e      0x174 /tmp/ccQ0GsXz.ltrans12.ltrans.o
                0x000000000000d78e                CoreFreeMemoryMapStack
 .text.CoreAddRange
                0x000000000000d902      0x11e /tmp/ccQ0GsXz.ltrans12.ltrans.o
                0x000000000000d902                CoreAddRange
 .text.CoreConvertPagesEx
                0x000000000000da20      0x2f8 /tmp/ccQ0GsXz.ltrans12.ltrans.o
                0x000000000000da20                CoreConvertPagesEx
 .text.CoreReleaseMemoryLock
                0x000000000000dd18        0xc /tmp/ccQ0GsXz.ltrans12.ltrans.o
                0x000000000000dd18                CoreReleaseMemoryLock
 .text.CoreAcquireMemoryLock
                0x000000000000dd24        0xc /tmp/ccQ0GsXz.ltrans12.ltrans.o
                0x000000000000dd24                CoreAcquireMemoryLock
 .text.CoreAddMemoryDescriptor
                0x000000000000dd30      0x2d4 /tmp/ccQ0GsXz.ltrans12.ltrans.o
                0x000000000000dd30                CoreAddMemoryDescriptor
 .text.CoreFreePoolPagesI
                0x000000000000e004       0x4b /tmp/ccQ0GsXz.ltrans12.ltrans.o
 .text.CoreFreePoolI
                0x000000000000e04f      0x264 /tmp/ccQ0GsXz.ltrans12.ltrans.o
                0x000000000000e04f                CoreFreePoolI
 .text.CoreFreePool
                0x000000000000e2b3       0x81 /tmp/ccQ0GsXz.ltrans12.ltrans.o
                0x000000000000e2b3                CoreFreePool
 .text.CoreAllocatePoolI
                0x000000000000e334      0x247 /tmp/ccQ0GsXz.ltrans12.ltrans.o
                0x000000000000e334                CoreAllocatePoolI
 .text.CoreInternalAllocatePool.part.1.lto_priv.64
                0x000000000000e57b       0x7e /tmp/ccQ0GsXz.ltrans12.ltrans.o
                0x000000000000e57b                CoreInternalAllocatePool.part.1.lto_priv.64
 .text.CoreAllocatePool
                0x000000000000e5f9       0x97 /tmp/ccQ0GsXz.ltrans12.ltrans.o
                0x000000000000e5f9                CoreAllocatePool
 .text.PopBool  0x000000000000e690       0x2d /tmp/ccQ0GsXz.ltrans13.ltrans.o
 .text.CoreGetDepexSectionAndPreProccess
                0x000000000000e6bd       0xb9 /tmp/ccQ0GsXz.ltrans13.ltrans.o
 .text.CoreNotifyEvent
                0x000000000000e776       0x5e /tmp/ccQ0GsXz.ltrans13.ltrans.o
 .text.PushBool
                0x000000000000e7d4       0xcd /tmp/ccQ0GsXz.ltrans13.ltrans.o
 .text.CoreFvToDevicePath
                0x000000000000e8a1       0x88 /tmp/ccQ0GsXz.ltrans13.ltrans.o
                0x000000000000e8a1                CoreFvToDevicePath
 .text.CoreReleaseDispatcherLock
                0x000000000000e929        0xc /tmp/ccQ0GsXz.ltrans13.ltrans.o
                0x000000000000e929                CoreReleaseDispatcherLock
 .text.CoreAcquireDispatcherLock
                0x000000000000e935        0xc /tmp/ccQ0GsXz.ltrans13.ltrans.o
                0x000000000000e935                CoreAcquireDispatcherLock
 .text.CoreAddToDriverList
                0x000000000000e941       0xac /tmp/ccQ0GsXz.ltrans13.ltrans.o
                0x000000000000e941                CoreAddToDriverList
 .text.CoreInsertOnScheduledQueueWhileProcessingBeforeAndAfter
                0x000000000000e9ed       0xf0 /tmp/ccQ0GsXz.ltrans13.ltrans.o
 .text.CoreTrust
                0x000000000000eadd       0x97 /tmp/ccQ0GsXz.ltrans13.ltrans.o
                0x000000000000eadd                CoreTrust
 .text.CoreSchedule
                0x000000000000eb74       0x6f /tmp/ccQ0GsXz.ltrans13.ltrans.o
                0x000000000000eb74                CoreSchedule
 .text.CoreReleaseEventLock
                0x000000000000ebe3        0xc /tmp/ccQ0GsXz.ltrans13.ltrans.o
                0x000000000000ebe3                CoreReleaseEventLock
 .text.CoreAcquireEventLock
                0x000000000000ebef        0xc /tmp/ccQ0GsXz.ltrans13.ltrans.o
                0x000000000000ebef                CoreAcquireEventLock
 .text.CoreCloseEvent
                0x000000000000ebfb       0xed /tmp/ccQ0GsXz.ltrans13.ltrans.o
                0x000000000000ebfb                CoreCloseEvent
 .text.CoreCheckEvent
                0x000000000000ece8       0x87 /tmp/ccQ0GsXz.ltrans13.ltrans.o
                0x000000000000ece8                CoreCheckEvent
 .text.CoreCreateEventInternal
                0x000000000000ed6f      0x206 /tmp/ccQ0GsXz.ltrans13.ltrans.o
                0x000000000000ed6f                CoreCreateEventInternal
 .text.CoreCreateEventEx
                0x000000000000ef75       0x3c /tmp/ccQ0GsXz.ltrans13.ltrans.o
                0x000000000000ef75                CoreCreateEventEx
 .text.CoreCreateEvent
                0x000000000000efb1       0x21 /tmp/ccQ0GsXz.ltrans13.ltrans.o
                0x000000000000efb1                CoreCreateEvent
 .text.CoreNotifySignalList
                0x000000000000efd2       0x57 /tmp/ccQ0GsXz.ltrans13.ltrans.o
                0x000000000000efd2                CoreNotifySignalList
 .text.CoreSignalEvent
                0x000000000000f029       0x64 /tmp/ccQ0GsXz.ltrans13.ltrans.o
                0x000000000000f029                CoreSignalEvent
 .text.CoreDispatcher
                0x000000000000f08d      0x47e /tmp/ccQ0GsXz.ltrans13.ltrans.o
                0x000000000000f08d                CoreDispatcher
 .text.CoreWaitForEvent
                0x000000000000f50b       0x8b /tmp/ccQ0GsXz.ltrans13.ltrans.o
                0x000000000000f50b                CoreWaitForEvent
 .text.CoreAllocateSpace.part.13
                0x000000000000f596      0x348 /tmp/ccQ0GsXz.ltrans14.ltrans.o
 .text.CoreAllocateMemorySpace
                0x000000000000f8de       0x83 /tmp/ccQ0GsXz.ltrans14.ltrans.o
                0x000000000000f8de                CoreAllocateMemorySpace
 .text.CoreAllocateIoSpace
                0x000000000000f961       0x82 /tmp/ccQ0GsXz.ltrans14.ltrans.o
                0x000000000000f961                CoreAllocateIoSpace
 .text.CoreGetIoSpaceDescriptor
                0x000000000000f9e3       0xaa /tmp/ccQ0GsXz.ltrans14.ltrans.o
                0x000000000000f9e3                CoreGetIoSpaceDescriptor
 .text.CoreRemoveIoSpace
                0x000000000000fa8d       0x29 /tmp/ccQ0GsXz.ltrans14.ltrans.o
                0x000000000000fa8d                CoreRemoveIoSpace
 .text.CoreFreeIoSpace
                0x000000000000fab6       0x29 /tmp/ccQ0GsXz.ltrans14.ltrans.o
                0x000000000000fab6                CoreFreeIoSpace
 .text.CoreAddIoSpace
                0x000000000000fadf       0x3f /tmp/ccQ0GsXz.ltrans14.ltrans.o
                0x000000000000fadf                CoreAddIoSpace
 .text.CoreSetMemorySpaceAttributes
                0x000000000000fb1e       0x25 /tmp/ccQ0GsXz.ltrans14.ltrans.o
                0x000000000000fb1e                CoreSetMemorySpaceAttributes
 .text.CoreRemoveMemorySpace
                0x000000000000fb43       0x29 /tmp/ccQ0GsXz.ltrans14.ltrans.o
                0x000000000000fb43                CoreRemoveMemorySpace
 .text.CoreFreeMemorySpace
                0x000000000000fb6c       0x29 /tmp/ccQ0GsXz.ltrans14.ltrans.o
                0x000000000000fb6c                CoreFreeMemorySpace
 .text.CoreSetMemorySpaceCapabilities
                0x000000000000fb95       0x79 /tmp/ccQ0GsXz.ltrans14.ltrans.o
                0x000000000000fb95                CoreSetMemorySpaceCapabilities
 .text.CoreAddMemorySpace
                0x000000000000fc0e      0x15e /tmp/ccQ0GsXz.ltrans14.ltrans.o
                0x000000000000fc0e                CoreAddMemorySpace
 .text.LookupPoolHead
                0x000000000000fd6c       0xc2 /tmp/ccQ0GsXz.ltrans14.ltrans.o
                0x000000000000fd6c                LookupPoolHead
 .text.GetPoolIndexFromSize.lto_priv.65
                0x000000000000fe2e       0x20 /tmp/ccQ0GsXz.ltrans14.ltrans.o
                0x000000000000fe2e                GetPoolIndexFromSize.lto_priv.65
 .text.CoreGetIoSpaceMap.part.7.lto_priv.67
                0x000000000000fe4e       0xbc /tmp/ccQ0GsXz.ltrans14.ltrans.o
                0x000000000000fe4e                CoreGetIoSpaceMap.part.7.lto_priv.67
 .text.CoreGetIoSpaceMap
                0x000000000000ff0a       0x1a /tmp/ccQ0GsXz.ltrans14.ltrans.o
                0x000000000000ff0a                CoreGetIoSpaceMap
 .text.CoreGetMemorySpaceMap.part.4.lto_priv.54
                0x000000000000ff24       0xbe /tmp/ccQ0GsXz.ltrans14.ltrans.o
                0x000000000000ff24                CoreGetMemorySpaceMap.part.4.lto_priv.54
 .text.CoreGetMemorySpaceMap
                0x000000000000ffe2       0x1a /tmp/ccQ0GsXz.ltrans14.ltrans.o
                0x000000000000ffe2                CoreGetMemorySpaceMap
 .text.CoreGetMemorySpaceDescriptor.part.3.lto_priv.55
                0x000000000000fffc       0x9c /tmp/ccQ0GsXz.ltrans14.ltrans.o
                0x000000000000fffc                CoreGetMemorySpaceDescriptor.part.3.lto_priv.55
 .text.CoreGetMemorySpaceDescriptor
                0x0000000000010098       0x15 /tmp/ccQ0GsXz.ltrans14.ltrans.o
                0x0000000000010098                CoreGetMemorySpaceDescriptor
 .text.CoreConvertResourceDescriptorHobAttributesToCapabilities
                0x00000000000100ad       0x31 /tmp/ccQ0GsXz.ltrans14.ltrans.o
                0x00000000000100ad                CoreConvertResourceDescriptorHobAttributesToCapabilities
 .text.VerifyGuidedSectionGuid
                0x00000000000100de       0xaa /tmp/ccQ0GsXz.ltrans15.ltrans.o
 .text.LzmaGuidedSectionExtraction
                0x0000000000010188       0x9e /tmp/ccQ0GsXz.ltrans15.ltrans.o
                0x0000000000010188                LzmaGuidedSectionExtraction
 .text.LzmaGuidedSectionGetInfo
                0x0000000000010226       0x9b /tmp/ccQ0GsXz.ltrans15.ltrans.o
                0x0000000000010226                LzmaGuidedSectionGetInfo
 .text.OpenSectionStreamEx
                0x00000000000102c1      0x11c /tmp/ccQ0GsXz.ltrans15.ltrans.o
                0x00000000000102c1                OpenSectionStreamEx
 .text.CreateChildNode
                0x00000000000103dd      0x45c /tmp/ccQ0GsXz.ltrans15.ltrans.o
                0x00000000000103dd                CreateChildNode
 .text.NotifyGuidedExtraction
                0x0000000000010839       0xbb /tmp/ccQ0GsXz.ltrans15.ltrans.o
 .text.LzmaDec_TryDummy.lto_priv.80
                0x00000000000108f4      0x5bb /tmp/ccQ0GsXz.ltrans15.ltrans.o
                0x00000000000108f4                LzmaDec_TryDummy.lto_priv.80
 .text.GenericProtocolNotify
                0x0000000000010eaf      0x191 /tmp/ccQ0GsXz.ltrans16.ltrans.o
 .text.CoreNotifyOnProtocolEntryTable
                0x0000000000011040       0x4b /tmp/ccQ0GsXz.ltrans16.ltrans.o
                0x0000000000011040                CoreNotifyOnProtocolEntryTable
 .text.CoreProcessFvImageFile
                0x000000000001108b      0x363 /tmp/ccQ0GsXz.ltrans16.ltrans.o
                0x000000000001108b                CoreProcessFvImageFile
 .text.CoreFwVolEventProtocolNotify
                0x00000000000113ee      0x631 /tmp/ccQ0GsXz.ltrans16.ltrans.o
                0x00000000000113ee                CoreFwVolEventProtocolNotify
 .text.CoreGetNextLocateAllHandles
                0x0000000000011a1f       0x2b /tmp/ccQ0GsXz.ltrans17.ltrans.o
 .text.CoreGetNextLocateByRegisterNotify
                0x0000000000011a4a       0x3b /tmp/ccQ0GsXz.ltrans17.ltrans.o
 .text.CoreGetNextLocateByProtocol
                0x0000000000011a85       0x3f /tmp/ccQ0GsXz.ltrans17.ltrans.o
 .text.CoreFindProtocolEntry
                0x0000000000011ac4       0xcc /tmp/ccQ0GsXz.ltrans17.ltrans.o
                0x0000000000011ac4                CoreFindProtocolEntry
 .text.CoreFindProtocolInterface
                0x0000000000011b90       0x45 /tmp/ccQ0GsXz.ltrans17.ltrans.o
                0x0000000000011b90                CoreFindProtocolInterface
 .text.CoreValidateHandle
                0x0000000000011bd5       0x3f /tmp/ccQ0GsXz.ltrans17.ltrans.o
                0x0000000000011bd5                CoreValidateHandle
 .text.CoreReleaseProtocolLock
                0x0000000000011c14        0xc /tmp/ccQ0GsXz.ltrans17.ltrans.o
                0x0000000000011c14                CoreReleaseProtocolLock
 .text.CoreAcquireProtocolLock
                0x0000000000011c20        0xc /tmp/ccQ0GsXz.ltrans17.ltrans.o
                0x0000000000011c20                CoreAcquireProtocolLock
 .text.CoreRegisterProtocolNotify
                0x0000000000011c2c       0xc8 /tmp/ccQ0GsXz.ltrans17.ltrans.o
                0x0000000000011c2c                CoreRegisterProtocolNotify
 .text.CoreDisconnectController
                0x0000000000011cf4      0x389 /tmp/ccQ0GsXz.ltrans17.ltrans.o
                0x0000000000011cf4                CoreDisconnectController
 .text.CoreLocateProtocol.part.1.lto_priv.58
                0x000000000001207d       0xc6 /tmp/ccQ0GsXz.ltrans17.ltrans.o
                0x000000000001207d                CoreLocateProtocol.part.1.lto_priv.58
 .text.CoreLocateProtocol
                0x0000000000012143       0x1a /tmp/ccQ0GsXz.ltrans17.ltrans.o
                0x0000000000012143                CoreLocateProtocol
 .text.CoreLocateHandle.part.0.lto_priv.57
                0x000000000001215d      0x13c /tmp/ccQ0GsXz.ltrans17.ltrans.o
                0x000000000001215d                CoreLocateHandle.part.0.lto_priv.57
 .text.CoreLocateHandle
                0x0000000000012299       0x2a /tmp/ccQ0GsXz.ltrans17.ltrans.o
                0x0000000000012299                CoreLocateHandle
 .text.CoreLocateHandleBuffer.part.2.lto_priv.71
                0x00000000000122c3       0xe1 /tmp/ccQ0GsXz.ltrans17.ltrans.o
                0x00000000000122c3                CoreLocateHandleBuffer.part.2.lto_priv.71
 .text.CoreLocateDevicePath.part.3.lto_priv.68
                0x00000000000123a4      0x177 /tmp/ccQ0GsXz.ltrans17.ltrans.o
                0x00000000000123a4                CoreLocateDevicePath.part.3.lto_priv.68
 .text.CoreLocateDevicePath
                0x000000000001251b       0x1a /tmp/ccQ0GsXz.ltrans17.ltrans.o
                0x000000000001251b                CoreLocateDevicePath
 .text.CoreLocateHandleBuffer
                0x0000000000012535       0x1f /tmp/ccQ0GsXz.ltrans17.ltrans.o
                0x0000000000012535                CoreLocateHandleBuffer
 .text.CoreRemoveInterfaceFromProtocol
                0x0000000000012554       0x48 /tmp/ccQ0GsXz.ltrans17.ltrans.o
                0x0000000000012554                CoreRemoveInterfaceFromProtocol
 .text.CoreNotifyProtocolEntry
                0x000000000001259c       0x2b /tmp/ccQ0GsXz.ltrans17.ltrans.o
                0x000000000001259c                CoreNotifyProtocolEntry
 .text.CoreReinstallProtocolInterface
                0x00000000000125c7      0x104 /tmp/ccQ0GsXz.ltrans17.ltrans.o
                0x00000000000125c7                CoreReinstallProtocolInterface
 .text.AddSortedDriverBindingProtocol
                0x00000000000126cb      0x115 /tmp/ccQ0GsXz.ltrans17.ltrans.o
                0x00000000000126cb                AddSortedDriverBindingProtocol
 .text.CoreInsertEventTimer
                0x00000000000127e0       0x46 /tmp/ccQ0GsXz.ltrans18.ltrans.o
 .text.CoreSetInterruptState
                0x0000000000012826       0x65 /tmp/ccQ0GsXz.ltrans18.ltrans.o
 .text.CoreRaiseTpl
                0x000000000001288b       0x33 /tmp/ccQ0GsXz.ltrans18.ltrans.o
                0x000000000001288b                CoreRaiseTpl
 .text.CoreSetTimer
                0x00000000000128be      0x120 /tmp/ccQ0GsXz.ltrans18.ltrans.o
                0x00000000000128be                CoreSetTimer
 .text.CoreTimerTick
                0x00000000000129de       0x5d /tmp/ccQ0GsXz.ltrans18.ltrans.o
                0x00000000000129de                CoreTimerTick
 .text.CoreCheckTimers
                0x0000000000012a3b       0xbe /tmp/ccQ0GsXz.ltrans18.ltrans.o
                0x0000000000012a3b                CoreCheckTimers
 .text.CoreRestoreTpl
                0x0000000000012af9      0x142 /tmp/ccQ0GsXz.ltrans18.ltrans.o
                0x0000000000012af9                CoreRestoreTpl
 .text.NotifyFwVolBlock
                0x0000000000012c3b      0x697 /tmp/ccQ0GsXz.ltrans18.ltrans.o
                0x0000000000012c3b                NotifyFwVolBlock
 .text.BasePrintLibSPrintMarker.constprop.48
                0x00000000000132d2      0xb0a /tmp/ccQ0GsXz.ltrans19.ltrans.o
                0x00000000000132d2                BasePrintLibSPrintMarker.constprop.48
 .text.SzFree   0x0000000000013ddc        0x1 /tmp/ccQ0GsXz.ltrans20.ltrans.o
                0x0000000000013ddc                SzFree
 .text.SzAlloc  0x0000000000013ddd       0x21 /tmp/ccQ0GsXz.ltrans20.ltrans.o
                0x0000000000013ddd                SzAlloc
 .text.InternalPrintMessage
                0x0000000000013dfe       0x88 /tmp/ccQ0GsXz.ltrans20.ltrans.o
 .text.DumpModuleImageInfo
                0x0000000000013e86      0x12f /tmp/ccQ0GsXz.ltrans20.ltrans.o
 .text.GetDecodedSizeOfBuf
                0x0000000000013fb5       0x1c /tmp/ccQ0GsXz.ltrans20.ltrans.o
                0x0000000000013fb5                GetDecodedSizeOfBuf
 .text.CommonExceptionHandler
                0x0000000000013fd1      0x504 /tmp/ccQ0GsXz.ltrans20.ltrans.o
                0x0000000000013fd1                CommonExceptionHandler
 .text.InternalGetReportStatusCode.part.0.lto_priv.53
                0x00000000000144d5       0x44 /tmp/ccQ0GsXz.ltrans20.ltrans.o
                0x00000000000144d5                InternalGetReportStatusCode.part.0.lto_priv.53
 .text.ReportDebugCodeEnabled
                0x0000000000014519        0x3 /tmp/ccQ0GsXz.ltrans20.ltrans.o
                0x0000000000014519                ReportDebugCodeEnabled
 .text.ReportErrorCodeEnabled
                0x000000000001451c        0x3 /tmp/ccQ0GsXz.ltrans20.ltrans.o
                0x000000000001451c                ReportErrorCodeEnabled
 .text.ReportProgressCodeEnabled
                0x000000000001451f        0x3 /tmp/ccQ0GsXz.ltrans20.ltrans.o
                0x000000000001451f                ReportProgressCodeEnabled
 .text.ReportStatusCode
                0x0000000000014522       0x7f /tmp/ccQ0GsXz.ltrans20.ltrans.o
                0x0000000000014522                ReportStatusCode
 .text.CoreSetWatchdogTimer
                0x00000000000145a1       0x44 /tmp/ccQ0GsXz.ltrans21.ltrans.o
                0x00000000000145a1                CoreSetWatchdogTimer
 .text.CoreInternalWaitForTick
                0x00000000000145e5       0x47 /tmp/ccQ0GsXz.ltrans21.ltrans.o
 .text.CoreStall
                0x000000000001462c       0x84 /tmp/ccQ0GsXz.ltrans21.ltrans.o
                0x000000000001462c                CoreStall
 .text.CoreInstallConfigurationTable
                0x00000000000146b0      0x158 /tmp/ccQ0GsXz.ltrans21.ltrans.o
                0x00000000000146b0                CoreInstallConfigurationTable
 .text.EfiSizeToPages.lto_priv.75
                0x0000000000014808       0x13 /tmp/ccQ0GsXz.ltrans21.ltrans.o
                0x0000000000014808                EfiSizeToPages.lto_priv.75
 *fill*         0x000000000001481b        0x5 
 .text          0x0000000000014820        0x6 /root/edk2/Build/OvmfX64/RELEASE_GCC5/X64/MdePkg/Library/BaseLib/BaseLib/OUTPUT/BaseLib.lib(WriteTr.obj)
                0x0000000000014820                AsmWriteTr
 *fill*         0x0000000000014826        0xa 
 .text          0x0000000000014830       0x8f /root/edk2/Build/OvmfX64/RELEASE_GCC5/X64/MdePkg/Library/BaseLib/BaseLib/OUTPUT/BaseLib.lib(SetJump.obj)
                0x0000000000014830                SetJump
 *fill*         0x00000000000148bf        0x1 
 .text          0x00000000000148c0       0x7c /root/edk2/Build/OvmfX64/RELEASE_GCC5/X64/MdePkg/Library/BaseLib/BaseLib/OUTPUT/BaseLib.lib(LongJump.obj)
                0x00000000000148c0                InternalLongJump
 *fill*         0x000000000001493c        0x4 
 .text          0x0000000000014940       0x27 /root/edk2/Build/OvmfX64/RELEASE_GCC5/X64/MdePkg/Library/BaseLib/BaseLib/OUTPUT/BaseLib.lib(CpuId.obj)
                0x0000000000014940                AsmCpuid
 *fill*         0x0000000000014967        0x9 
 .text          0x0000000000014970       0x2f /root/edk2/Build/OvmfX64/RELEASE_GCC5/X64/MdePkg/Library/BaseLib/BaseLib/OUTPUT/BaseLib.lib(CpuIdEx.obj)
                0x0000000000014970                AsmCpuidEx
 *fill*         0x000000000001499f        0x1 
 .text          0x00000000000149a0       0x1d /root/edk2/Build/OvmfX64/RELEASE_GCC5/X64/MdePkg/Library/BaseMemoryLibRepStr/BaseMemoryLibRepStr/OUTPUT/BaseMemoryLibRepStr.lib(CompareMem.obj)
                0x00000000000149a0                InternalMemCompareMem
 *fill*         0x00000000000149bd        0x3 
 .text          0x00000000000149c0       0x1d /root/edk2/Build/OvmfX64/RELEASE_GCC5/X64/MdePkg/Library/BaseMemoryLibRepStr/BaseMemoryLibRepStr/OUTPUT/BaseMemoryLibRepStr.lib(ZeroMem.obj)
                0x00000000000149c0                InternalMemZeroMem
 *fill*         0x00000000000149dd        0x3 
 .text          0x00000000000149e0       0x12 /root/edk2/Build/OvmfX64/RELEASE_GCC5/X64/MdePkg/Library/BaseMemoryLibRepStr/BaseMemoryLibRepStr/OUTPUT/BaseMemoryLibRepStr.lib(SetMem64.obj)
                0x00000000000149e0                InternalMemSetMem64
 *fill*         0x00000000000149f2        0xe 
 .text          0x0000000000014a00       0x12 /root/edk2/Build/OvmfX64/RELEASE_GCC5/X64/MdePkg/Library/BaseMemoryLibRepStr/BaseMemoryLibRepStr/OUTPUT/BaseMemoryLibRepStr.lib(SetMem16.obj)
                0x0000000000014a00                InternalMemSetMem16
 *fill*         0x0000000000014a12        0xe 
 .text          0x0000000000014a20       0x11 /root/edk2/Build/OvmfX64/RELEASE_GCC5/X64/MdePkg/Library/BaseMemoryLibRepStr/BaseMemoryLibRepStr/OUTPUT/BaseMemoryLibRepStr.lib(SetMem.obj)
                0x0000000000014a20                InternalMemSetMem
 *fill*         0x0000000000014a31        0xf 
 .text          0x0000000000014a40       0x3c /root/edk2/Build/OvmfX64/RELEASE_GCC5/X64/MdePkg/Library/BaseMemoryLibRepStr/BaseMemoryLibRepStr/OUTPUT/BaseMemoryLibRepStr.lib(CopyMem.obj)
                0x0000000000014a40                InternalMemCopyMem
 *fill*         0x0000000000014a7c        0x4 
 .text          0x0000000000014a80      0x50b /root/edk2/Build/OvmfX64/RELEASE_GCC5/X64/UefiCpuPkg/Library/CpuExceptionHandlerLib/DxeCpuExceptionHandlerLib/OUTPUT/DxeCpuExceptionHandlerLib.lib(ExceptionHandlerAsm.obj)
                0x0000000000014c91                CommonInterruptEntry
                0x0000000000014e46                AsmGetTemplateAddressMap
                0x0000000000014f84                AsmVectorNumFixup
 *(.rodata .rodata.* .gnu.linkonce.r.*)
 *fill*         0x0000000000014f8b        0x1 
 .rodata.DxeMain
                0x0000000000014f8c       0x1c /tmp/ccQ0GsXz.ltrans0.ltrans.o
 .rodata.mDoFarReturnFlag
                0x0000000000014fa8        0x8 /tmp/ccQ0GsXz.ltrans0.ltrans.o
                0x0000000000014fa8                _gPcd_FixedAtBuild_PcdMemoryProfileMemoryType
                0x0000000000014fa8                _gPcd_FixedAtBuild_PcdDxeNxMemoryProtectionPolicy
                0x0000000000014fa8                _gPcd_FixedAtBuild_PcdHeapGuardPoolType
                0x0000000000014fa8                _gPcd_FixedAtBuild_PcdLoadModuleAtFixAddressEnable
                0x0000000000014fa8                _gPcd_FixedAtBuild_PcdHeapGuardPageType
                0x0000000000014fa8                mDoFarReturnFlag
 .rodata.mUefiDevicePathLibEndDevicePath
                0x0000000000014fb0        0x4 /tmp/ccQ0GsXz.ltrans0.ltrans.o
                0x0000000000014fb0                mUefiDevicePathLibEndDevicePath
 .rodata._gPcd_FixedAtBuild_PcdMemoryProfileDriverPath
                0x0000000000014fb4        0x1 /tmp/ccQ0GsXz.ltrans0.ltrans.o
 .rodata.str1.1
                0x0000000000014fb5       0x7a /tmp/ccQ0GsXz.ltrans0.ltrans.o
                                         0x81 (size before relaxing)
 *fill*         0x000000000001502f        0x1 
 .rodata.CoreLoadImageCommon.part.1.lto_priv.79
                0x0000000000015030       0x2c /tmp/ccQ0GsXz.ltrans1.ltrans.o
 .rodata.gBreakSet
                0x000000000001505c        0x1 /tmp/ccQ0GsXz.ltrans5.ltrans.o
                0x000000000001505c                gBreakSet
                0x000000000001505c                _gPcd_FixedAtBuild_PcdFrameworkCompatibilitySupport
                0x000000000001505c                _gPcd_FixedAtBuild_PcdPerformanceLibraryPropertyMask
                0x000000000001505c                _gPcd_FixedAtBuild_PcdHeapGuardPropertyMask
                0x000000000001505c                gParity
                0x000000000001505c                _gPcd_FixedAtBuild_PcdNullPointerDetectionPropertyMask
                0x000000000001505c                _gPcd_FixedAtBuild_PcdMemoryProfilePropertyMask
                0x000000000001505c                _gPcd_FixedAtBuild_PcdCpuStackGuard
 *fill*         0x000000000001505d        0x3 
 .rodata.mFvAttributes
                0x0000000000015060        0x8 /tmp/ccQ0GsXz.ltrans6.ltrans.o
 .rodata.mFvAttributes2
                0x0000000000015068        0x8 /tmp/ccQ0GsXz.ltrans6.ltrans.o
 .rodata.mPoolSizeTable.lto_priv.66
                0x0000000000015070       0x18 /tmp/ccQ0GsXz.ltrans12.ltrans.o
                0x0000000000015070                mPoolSizeTable.lto_priv.66
 *fill*         0x0000000000015088       0x18 
 .rodata.mEventTable
                0x00000000000150a0       0x20 /tmp/ccQ0GsXz.ltrans13.ltrans.o
 .rodata.mDxeFileTypes
                0x00000000000150c0        0x5 /tmp/ccQ0GsXz.ltrans16.ltrans.o
 .rodata.str1.1
                0x00000000000150c5      0x29f /tmp/ccQ0GsXz.ltrans19.ltrans.o
                                        0x2b0 (size before relaxing)
 *fill*         0x0000000000015364        0xc 
 .rodata.mHexStr
                0x0000000000015370       0x10 /tmp/ccQ0GsXz.ltrans19.ltrans.o
 .rodata.str1.1
                0x0000000000015380      0x514 /tmp/ccQ0GsXz.ltrans20.ltrans.o
                                        0x516 (size before relaxing)
 *fill*         0x0000000000015894        0x4 
 .rodata.mExceptionReservedStr
                0x0000000000015898        0x9 /tmp/ccQ0GsXz.ltrans20.ltrans.o
 *fill*         0x00000000000158a1        0x3 
 .rodata.mErrorCodeFlag
                0x00000000000158a4        0x4 /tmp/ccQ0GsXz.ltrans20.ltrans.o
                0x00000000000158a4                mErrorCodeFlag
 *(.got .got.*)
 .got           0x00000000000158a8        0x0 DxePcdLib.obj (symbol from plugin)
 .got.plt       0x00000000000158a8        0x0 DxePcdLib.obj (symbol from plugin)
                0x00000000000158a8                _GLOBAL_OFFSET_TABLE_
 *:AutoGen.obj(.data.g*Guid)

.plt            0x00000000000158b0        0x0
 .plt           0x00000000000158b0        0x0 DxePcdLib.obj (symbol from plugin)

.data           0x00000000000158c0     0x52e0
 *(.data .data.* .gnu.linkonce.d.*)
 .data.rel.local.mImageQueue
                0x00000000000158c0       0x10 /tmp/ccQ0GsXz.ltrans0.ltrans.o
 .data.gEfiSmmBase2ProtocolGuid
                0x00000000000158d0       0x10 /tmp/ccQ0GsXz.ltrans0.ltrans.o
 .data.gEfiSecurity2ArchProtocolGuid
                0x00000000000158e0       0x10 /tmp/ccQ0GsXz.ltrans0.ltrans.o
 .data.gEfiRealTimeClockArchProtocolGuid
                0x00000000000158f0       0x10 /tmp/ccQ0GsXz.ltrans0.ltrans.o
 .data.gEfiResetArchProtocolGuid
                0x0000000000015900       0x10 /tmp/ccQ0GsXz.ltrans0.ltrans.o
 .data.gEfiMonotonicCounterArchProtocolGuid
                0x0000000000015910       0x10 /tmp/ccQ0GsXz.ltrans0.ltrans.o
 .data.gEfiCapsuleArchProtocolGuid
                0x0000000000015920       0x10 /tmp/ccQ0GsXz.ltrans0.ltrans.o
 .data.gEfiVariableWriteArchProtocolGuid
                0x0000000000015930       0x10 /tmp/ccQ0GsXz.ltrans0.ltrans.o
 .data.gEfiVariableArchProtocolGuid
                0x0000000000015940       0x10 /tmp/ccQ0GsXz.ltrans0.ltrans.o
 .data.gEfiRuntimeArchProtocolGuid
                0x0000000000015950       0x10 /tmp/ccQ0GsXz.ltrans0.ltrans.o
                0x0000000000015950                gEfiRuntimeArchProtocolGuid
 .data.gEfiWatchdogTimerArchProtocolGuid
                0x0000000000015960       0x10 /tmp/ccQ0GsXz.ltrans0.ltrans.o
 .data.gEfiBdsArchProtocolGuid
                0x0000000000015970       0x10 /tmp/ccQ0GsXz.ltrans0.ltrans.o
 .data.gEfiTimerArchProtocolGuid
                0x0000000000015980       0x10 /tmp/ccQ0GsXz.ltrans0.ltrans.o
                0x0000000000015980                gEfiTimerArchProtocolGuid
 .data.gEfiMetronomeArchProtocolGuid
                0x0000000000015990       0x10 /tmp/ccQ0GsXz.ltrans0.ltrans.o
 .data.gEfiSecurityArchProtocolGuid
                0x00000000000159a0       0x10 /tmp/ccQ0GsXz.ltrans0.ltrans.o
 *fill*         0x00000000000159b0       0x10 
 .data.rel.local.mDxeServices
                0x00000000000159c0       0xa8 /tmp/ccQ0GsXz.ltrans0.ltrans.o
                0x00000000000159c0                mDxeServices
 *fill*         0x0000000000015a68       0x18 
 .data.rel.local.mBootServices
                0x0000000000015a80      0x178 /tmp/ccQ0GsXz.ltrans0.ltrans.o
 *fill*         0x0000000000015bf8        0x8 
 .data.rel.local.mMemoryProfileContext
                0x0000000000015c00      0x148 /tmp/ccQ0GsXz.ltrans0.ltrans.o
 *fill*         0x0000000000015d48        0x8 
 .data.gEfiLoadPeImageProtocolGuid
                0x0000000000015d50       0x10 /tmp/ccQ0GsXz.ltrans0.ltrans.o
 .data.rel.local.mLoadPe32PrivateData
                0x0000000000015d60       0x20 /tmp/ccQ0GsXz.ltrans0.ltrans.o
 .data.gEfiLoadedImageProtocolGuid
                0x0000000000015d80       0x10 /tmp/ccQ0GsXz.ltrans0.ltrans.o
                0x0000000000015d80                gEfiLoadedImageProtocolGuid
 .data.gEfiCurrentTpl
                0x0000000000015d90        0x8 /tmp/ccQ0GsXz.ltrans0.ltrans.o
                0x0000000000015d90                gEfiCurrentTpl
 *fill*         0x0000000000015d98        0x8 
 .data.mCorePrivateImage
                0x0000000000015da0      0x188 /tmp/ccQ0GsXz.ltrans0.ltrans.o
 *fill*         0x0000000000015f28        0x8 
 .data.gEfiHobMemoryAllocModuleGuid
                0x0000000000015f30       0x10 /tmp/ccQ0GsXz.ltrans0.ltrans.o
 .data.rel.local.mGcdIoSpaceMap
                0x0000000000015f40       0x10 /tmp/ccQ0GsXz.ltrans0.ltrans.o
                0x0000000000015f40                mGcdIoSpaceMap
 *fill*         0x0000000000015f50       0x10 
 .data.mGcdIoSpaceMapEntryTemplate
                0x0000000000015f60       0x50 /tmp/ccQ0GsXz.ltrans0.ltrans.o
 *fill*         0x0000000000015fb0       0x10 
 .data.mGcdMemorySpaceMapEntryTemplate
                0x0000000000015fc0       0x50 /tmp/ccQ0GsXz.ltrans0.ltrans.o
 .data.gLzmaCustomDecompressGuid
                0x0000000000016010       0x10 /tmp/ccQ0GsXz.ltrans0.ltrans.o
                0x0000000000016010                gLzmaCustomDecompressGuid
 .data.gEfiDebugImageInfoTableGuid
                0x0000000000016020       0x10 /tmp/ccQ0GsXz.ltrans0.ltrans.o
 .data.gIdleLoopEventGuid
                0x0000000000016030       0x10 /tmp/ccQ0GsXz.ltrans0.ltrans.o
 .data.rel.local.mProfileProtocol
                0x0000000000016040       0x30 /tmp/ccQ0GsXz.ltrans0.ltrans.o
 .data.gEdkiiMemoryProfileGuid
                0x0000000000016070       0x10 /tmp/ccQ0GsXz.ltrans0.ltrans.o
 .data.gEfiEventReadyToBootGuid
                0x0000000000016080       0x10 /tmp/ccQ0GsXz.ltrans0.ltrans.o
 .data.gEfiEndOfDxeEventGroupGuid
                0x0000000000016090       0x10 /tmp/ccQ0GsXz.ltrans0.ltrans.o
 .data.gEfiCpuArchProtocolGuid
                0x00000000000160a0       0x10 /tmp/ccQ0GsXz.ltrans0.ltrans.o
                0x00000000000160a0                gEfiCpuArchProtocolGuid
 *fill*         0x00000000000160b0       0x10 
 .data.rel.local.mOptionalProtocols
                0x00000000000160c0       0x78 /tmp/ccQ0GsXz.ltrans0.ltrans.o
 *fill*         0x0000000000016138        0x8 
 .data.gEfiFirmwareVolumeBlockProtocolGuid
                0x0000000000016140       0x10 /tmp/ccQ0GsXz.ltrans0.ltrans.o
                0x0000000000016140                gEfiFirmwareVolumeBlockProtocolGuid
 .data.rel.local.mCustomGuidedSectionExtractionProtocol
                0x0000000000016150        0x8 /tmp/ccQ0GsXz.ltrans0.ltrans.o
 *fill*         0x0000000000016158        0x8 
 .data.gEfiFirmwareVolume2ProtocolGuid
                0x0000000000016160       0x10 /tmp/ccQ0GsXz.ltrans0.ltrans.o
                0x0000000000016160                gEfiFirmwareVolume2ProtocolGuid
 *fill*         0x0000000000016170       0x10 
 .data.rel.ro.local.mMissingProtocols
                0x0000000000016180       0xe0 /tmp/ccQ0GsXz.ltrans0.ltrans.o
 .data.rel.local.mDiscoveredList
                0x0000000000016260       0x10 /tmp/ccQ0GsXz.ltrans0.ltrans.o
                0x0000000000016260                mDiscoveredList
 *fill*         0x0000000000016270       0x10 
 .data.rel.local.mArchProtocols
                0x0000000000016280      0x230 /tmp/ccQ0GsXz.ltrans0.ltrans.o
                0x0000000000016280                mArchProtocols
 .data.rel.local.gEfiDecompress
                0x00000000000164b0       0x10 /tmp/ccQ0GsXz.ltrans0.ltrans.o
 .data.gEfiDecompressProtocolGuid
                0x00000000000164c0       0x10 /tmp/ccQ0GsXz.ltrans0.ltrans.o
                0x00000000000164c0                gEfiDecompressProtocolGuid
 .data.gEfiVectorHandoffTableGuid
                0x00000000000164d0       0x10 /tmp/ccQ0GsXz.ltrans0.ltrans.o
 .data.gMemoryTypeInformation
                0x00000000000164e0       0x80 /tmp/ccQ0GsXz.ltrans0.ltrans.o
                0x00000000000164e0                gMemoryTypeInformation
 .data.gEfiMemoryTypeInformationGuid
                0x0000000000016560       0x10 /tmp/ccQ0GsXz.ltrans0.ltrans.o
 .data.gEfiHobListGuid
                0x0000000000016570       0x10 /tmp/ccQ0GsXz.ltrans0.ltrans.o
 .data.gEfiDxeServicesTableGuid
                0x0000000000016580       0x10 /tmp/ccQ0GsXz.ltrans0.ltrans.o
 .data.rel.local.gDxeCoreRT
                0x0000000000016590        0x8 /tmp/ccQ0GsXz.ltrans0.ltrans.o
                0x0000000000016590                gDxeCoreRT
 *fill*         0x0000000000016598        0x8 
 .data.rel.local.mEfiRuntimeServicesTableTemplate
                0x00000000000165a0       0x88 /tmp/ccQ0GsXz.ltrans0.ltrans.o
 *fill*         0x0000000000016628       0x18 
 .data.rel.local.mEfiSystemTableTemplate
                0x0000000000016640       0x78 /tmp/ccQ0GsXz.ltrans0.ltrans.o
 *fill*         0x00000000000166b8        0x8 
 .data.gEfiVectorHandoffInfoPpiGuid
                0x00000000000166c0       0x10 /tmp/ccQ0GsXz.ltrans0.ltrans.o
 .data.gEfiEbcProtocolGuid
                0x00000000000166d0       0x10 /tmp/ccQ0GsXz.ltrans1.ltrans.o
 .data.gEfiFileInfoGuid
                0x00000000000166e0       0x10 /tmp/ccQ0GsXz.ltrans1.ltrans.o
 .data.gEfiHiiPackageListProtocolGuid
                0x00000000000166f0       0x10 /tmp/ccQ0GsXz.ltrans1.ltrans.o
                0x00000000000166f0                gEfiHiiPackageListProtocolGuid
 .data.gEfiLoadFileProtocolGuid
                0x0000000000016700       0x10 /tmp/ccQ0GsXz.ltrans1.ltrans.o
 .data.gEfiLoadFile2ProtocolGuid
                0x0000000000016710       0x10 /tmp/ccQ0GsXz.ltrans1.ltrans.o
 .data.gEfiSimpleFileSystemProtocolGuid
                0x0000000000016720       0x10 /tmp/ccQ0GsXz.ltrans1.ltrans.o
 .data.rel.local.gHandleList
                0x0000000000016730       0x10 /tmp/ccQ0GsXz.ltrans4.ltrans.o
                0x0000000000016730                gHandleList
 .data.mGcdMemorySpaceLock
                0x0000000000016740       0x18 /tmp/ccQ0GsXz.ltrans4.ltrans.o
 *fill*         0x0000000000016758        0x8 
 .data.rel.local.gRuntimeTemplate
                0x0000000000016760       0x50 /tmp/ccQ0GsXz.ltrans5.ltrans.o
                0x0000000000016760                gRuntimeTemplate
 .data.rel.local.gRuntime
                0x00000000000167b0        0x8 /tmp/ccQ0GsXz.ltrans5.ltrans.o
                0x00000000000167b0                gRuntime
 *fill*         0x00000000000167b8        0x8 
 .data.gEfiEventExitBootServicesGuid
                0x00000000000167c0       0x10 /tmp/ccQ0GsXz.ltrans5.ltrans.o
                0x00000000000167c0                gEfiEventExitBootServicesGuid
 .data.gEventExitBootServicesFailedGuid
                0x00000000000167d0       0x10 /tmp/ccQ0GsXz.ltrans5.ltrans.o
 .data.gEfiCallerIdGuid
                0x00000000000167e0       0x10 /tmp/ccQ0GsXz.ltrans5.ltrans.o
                0x00000000000167e0                gEfiCallerIdGuid
 .data.gEfiStatusCodeSpecificDataGuid
                0x00000000000167f0       0x10 /tmp/ccQ0GsXz.ltrans5.ltrans.o
 .data.gMemoryLock
                0x0000000000016800       0x18 /tmp/ccQ0GsXz.ltrans5.ltrans.o
                0x0000000000016800                gMemoryLock
 *fill*         0x0000000000016818        0x8 
 .data.rel.local.mGcdMemorySpaceMap
                0x0000000000016820       0x10 /tmp/ccQ0GsXz.ltrans5.ltrans.o
                0x0000000000016820                mGcdMemorySpaceMap
 .data.mDefaultBaseAddress
                0x0000000000016830        0x8 /tmp/ccQ0GsXz.ltrans5.ltrans.o
                0x0000000000016830                mDefaultBaseAddress
 .data.mDefaultMaximumAddress
                0x0000000000016838        0x8 /tmp/ccQ0GsXz.ltrans5.ltrans.o
                0x0000000000016838                mDefaultMaximumAddress
 .data.mMemoryTypeStatistics
                0x0000000000016840      0x300 /tmp/ccQ0GsXz.ltrans5.ltrans.o
                0x0000000000016840                mMemoryTypeStatistics
 .data.rel.local.gMemoryMap
                0x0000000000016b40       0x10 /tmp/ccQ0GsXz.ltrans5.ltrans.o
                0x0000000000016b40                gMemoryMap
 .data.mMapLevel
                0x0000000000016b50        0x8 /tmp/ccQ0GsXz.ltrans6.ltrans.o
                0x0000000000016b50                mMapLevel
 *fill*         0x0000000000016b58        0x8 
 .data.mLevelShift
                0x0000000000016b60       0x28 /tmp/ccQ0GsXz.ltrans6.ltrans.o
                0x0000000000016b60                mLevelShift
 *fill*         0x0000000000016b88       0x18 
 .data.mLevelMask
                0x0000000000016ba0       0x28 /tmp/ccQ0GsXz.ltrans6.ltrans.o
                0x0000000000016ba0                mLevelMask
 *fill*         0x0000000000016bc8        0x8 
 .data.mFvPIWGDevicePathTemplate
                0x0000000000016bd0       0x18 /tmp/ccQ0GsXz.ltrans6.ltrans.o
 *fill*         0x0000000000016be8        0x8 
 .data.mFvMemmapDevicePathTemplate
                0x0000000000016bf0       0x1c /tmp/ccQ0GsXz.ltrans6.ltrans.o
 *fill*         0x0000000000016c0c       0x14 
 .data.rel.local.mFwVolBlock
                0x0000000000016c20       0x80 /tmp/ccQ0GsXz.ltrans6.ltrans.o
 .data.rel.local.mStreamRoot
                0x0000000000016ca0       0x10 /tmp/ccQ0GsXz.ltrans6.ltrans.o
                0x0000000000016ca0                mStreamRoot
 .data.gEfiFirmwareFileSystem2Guid
                0x0000000000016cb0       0x10 /tmp/ccQ0GsXz.ltrans6.ltrans.o
 .data.mPoolMemoryLock.lto_priv.63
                0x0000000000016cc0       0x18 /tmp/ccQ0GsXz.ltrans7.ltrans.o
                0x0000000000016cc0                mPoolMemoryLock.lto_priv.63
 *fill*         0x0000000000016cd8        0x8 
 .data.mMemoryProfileLock
                0x0000000000016ce0       0x18 /tmp/ccQ0GsXz.ltrans7.ltrans.o
 *fill*         0x0000000000016cf8        0x8 
 .data.gEfiHobMemoryAllocStackGuid
                0x0000000000016d00       0x10 /tmp/ccQ0GsXz.ltrans8.ltrans.o
 .data.gEfiLoadedImageDevicePathProtocolGuid
                0x0000000000016d10       0x10 /tmp/ccQ0GsXz.ltrans8.ltrans.o
                0x0000000000016d10                gEfiLoadedImageDevicePathProtocolGuid
 .data.gEfiBusSpecificDriverOverrideProtocolGuid
                0x0000000000016d20       0x10 /tmp/ccQ0GsXz.ltrans8.ltrans.o
 .data.gEfiDriverFamilyOverrideProtocolGuid
                0x0000000000016d30       0x10 /tmp/ccQ0GsXz.ltrans8.ltrans.o
 .data.gEfiPlatformDriverOverrideProtocolGuid
                0x0000000000016d40       0x10 /tmp/ccQ0GsXz.ltrans8.ltrans.o
 .data.mPropertiesTableLock
                0x0000000000016d50       0x18 /tmp/ccQ0GsXz.ltrans10.ltrans.o
 *fill*         0x0000000000016d68        0x8 
 .data.gPcdProtocolGuid
                0x0000000000016d70       0x10 /tmp/ccQ0GsXz.ltrans10.ltrans.o
 .data.rel.local.mImagePropertiesPrivateData
                0x0000000000016d80       0x28 /tmp/ccQ0GsXz.ltrans10.ltrans.o
                0x0000000000016d80                mImagePropertiesPrivateData
 *fill*         0x0000000000016da8        0x8 
 .data.gEfiPropertiesTableGuid
                0x0000000000016db0       0x10 /tmp/ccQ0GsXz.ltrans10.ltrans.o
 .data.gEfiMemoryAttributesTableGuid
                0x0000000000016dc0       0x10 /tmp/ccQ0GsXz.ltrans10.ltrans.o
 .data.mPropertiesTable
                0x0000000000016dd0       0x10 /tmp/ccQ0GsXz.ltrans10.ltrans.o
 .data.gEfiEventMemoryMapChangeGuid
                0x0000000000016de0       0x10 /tmp/ccQ0GsXz.ltrans12.ltrans.o
 .data.rel.local.mFreeMemoryMapEntryList
                0x0000000000016df0       0x10 /tmp/ccQ0GsXz.ltrans12.ltrans.o
 .data.gEventQueueLock
                0x0000000000016e00       0x18 /tmp/ccQ0GsXz.ltrans13.ltrans.o
 *fill*         0x0000000000016e18        0x8 
 .data.rel.local.gEventSignalQueue
                0x0000000000016e20       0x10 /tmp/ccQ0GsXz.ltrans13.ltrans.o
 .data.gEfiEventVirtualAddressChangeGuid
                0x0000000000016e30       0x10 /tmp/ccQ0GsXz.ltrans13.ltrans.o
 .data.rel.local.mProtocolDatabase
                0x0000000000016e40       0x10 /tmp/ccQ0GsXz.ltrans13.ltrans.o
                0x0000000000016e40                mProtocolDatabase
 .data.mDispatcherLock
                0x0000000000016e50       0x18 /tmp/ccQ0GsXz.ltrans13.ltrans.o
 *fill*         0x0000000000016e68        0x8 
 .data.gEfiEventDxeDispatchGuid
                0x0000000000016e70       0x10 /tmp/ccQ0GsXz.ltrans13.ltrans.o
 .data.mAttributeConversionTable
                0x0000000000016e80      0x168 /tmp/ccQ0GsXz.ltrans14.ltrans.o
 *fill*         0x0000000000016fe8        0x8 
 .data.mGcdIoSpaceLock
                0x0000000000016ff0       0x18 /tmp/ccQ0GsXz.ltrans14.ltrans.o
                0x0000000000016ff0                mGcdIoSpaceLock
 *fill*         0x0000000000017008        0x8 
 .data.rel.local.mPoolHeadList
                0x0000000000017010       0x10 /tmp/ccQ0GsXz.ltrans14.ltrans.o
 .data.rel.local.mFvHandleList
                0x0000000000017020       0x10 /tmp/ccQ0GsXz.ltrans16.ltrans.o
 .data.rel.local.mScheduledQueue
                0x0000000000017030       0x10 /tmp/ccQ0GsXz.ltrans16.ltrans.o
                0x0000000000017030                mScheduledQueue
 .data.gAprioriGuid
                0x0000000000017040       0x10 /tmp/ccQ0GsXz.ltrans16.ltrans.o
 .data.gEfiDevicePathProtocolGuid
                0x0000000000017050       0x10 /tmp/ccQ0GsXz.ltrans16.ltrans.o
                0x0000000000017050                gEfiDevicePathProtocolGuid
 .data.gEfiDriverBindingProtocolGuid
                0x0000000000017060       0x10 /tmp/ccQ0GsXz.ltrans17.ltrans.o
                0x0000000000017060                gEfiDriverBindingProtocolGuid
 .data.gProtocolDatabaseLock
                0x0000000000017070       0x18 /tmp/ccQ0GsXz.ltrans17.ltrans.o
 *fill*         0x0000000000017088        0x8 
 .data.gEfiFirmwareFileSystem3Guid
                0x0000000000017090       0x10 /tmp/ccQ0GsXz.ltrans18.ltrans.o
                0x0000000000017090                gEfiFirmwareFileSystem3Guid
 .data.rel.local.mFvDevice
                0x00000000000170a0       0xa0 /tmp/ccQ0GsXz.ltrans18.ltrans.o
 .data.rel.local.mEfiTimerList
                0x0000000000017140       0x10 /tmp/ccQ0GsXz.ltrans18.ltrans.o
 .data.mEfiSystemTimeLock
                0x0000000000017150       0x18 /tmp/ccQ0GsXz.ltrans18.ltrans.o
 *fill*         0x0000000000017168        0x8 
 .data.mEfiTimerLock
                0x0000000000017170       0x18 /tmp/ccQ0GsXz.ltrans18.ltrans.o
 *fill*         0x0000000000017188       0x18 
 .data.rel.ro.local.mStatusString
                0x00000000000171a0      0x138 /tmp/ccQ0GsXz.ltrans19.ltrans.o
 *fill*         0x00000000000172d8        0x8 
 .data.gEfiStatusCodeRuntimeProtocolGuid
                0x00000000000172e0       0x10 /tmp/ccQ0GsXz.ltrans20.ltrans.o
 *fill*         0x00000000000172f0       0x10 
 .data.rel.ro.local.mExceptionNameStr
                0x0000000000017300       0xa8 /tmp/ccQ0GsXz.ltrans20.ltrans.o
 *(.bss .bss.*)
 .bss.gSmmBase2
                0x00000000000173a8        0x8 /tmp/ccQ0GsXz.ltrans0.ltrans.o
                0x00000000000173a8                gSmmBase2
 .bss.gSecurity2
                0x00000000000173b0        0x8 /tmp/ccQ0GsXz.ltrans0.ltrans.o
                0x00000000000173b0                gSecurity2
 .bss.gWatchdogTimer
                0x00000000000173b8        0x8 /tmp/ccQ0GsXz.ltrans0.ltrans.o
                0x00000000000173b8                gWatchdogTimer
 .bss.gMetronome
                0x00000000000173c0        0x8 /tmp/ccQ0GsXz.ltrans0.ltrans.o
                0x00000000000173c0                gMetronome
 .bss.gSecurity
                0x00000000000173c8        0x8 /tmp/ccQ0GsXz.ltrans0.ltrans.o
                0x00000000000173c8                gSecurity
 *fill*         0x00000000000173d0       0x10 
 .bss.mNewStack
                0x00000000000173e0     0x1000 /tmp/ccQ0GsXz.ltrans0.ltrans.o
 .bss.mNewGdt   0x00000000000183e0      0x878 /tmp/ccQ0GsXz.ltrans0.ltrans.o
 *fill*         0x0000000000018c58        0x8 
 .bss.mExternalInterruptHandlerTable
                0x0000000000018c60      0x100 /tmp/ccQ0GsXz.ltrans0.ltrans.o
 .bss.mReservedVectorsData
                0x0000000000018d60      0xb00 /tmp/ccQ0GsXz.ltrans0.ltrans.o
 .bss.mExceptionHandlerData
                0x0000000000019860       0x20 /tmp/ccQ0GsXz.ltrans0.ltrans.o
                0x0000000000019860                mExceptionHandlerData
 .bss.mPoolHead
                0x0000000000019880      0xd98 /tmp/ccQ0GsXz.ltrans0.ltrans.o
                0x0000000000019880                mPoolHead
 .bss._gPcd_BinaryPatch_PcdLoadFixAddressBootTimeCodePageNumber
                0x000000000001a618        0x4 /tmp/ccQ0GsXz.ltrans0.ltrans.o
                0x000000000001a618                _gPcd_BinaryPatch_PcdLoadFixAddressBootTimeCodePageNumber
 .bss._gPcd_BinaryPatch_PcdLoadFixAddressRuntimeCodePageNumber
                0x000000000001a61c        0x4 /tmp/ccQ0GsXz.ltrans0.ltrans.o
                0x000000000001a61c                _gPcd_BinaryPatch_PcdLoadFixAddressRuntimeCodePageNumber
 .bss.mMemoryProfileDriverPath
                0x000000000001a620        0x8 /tmp/ccQ0GsXz.ltrans0.ltrans.o
                0x000000000001a620                mMemoryProfileDriverPath
 .bss.mMemoryProfileDriverPathSize
                0x000000000001a628        0x8 /tmp/ccQ0GsXz.ltrans0.ltrans.o
                0x000000000001a628                mMemoryProfileDriverPathSize
 .bss.mMemoryProfileRecordingEnable
                0x000000000001a630        0x1 /tmp/ccQ0GsXz.ltrans0.ltrans.o
                0x000000000001a630                mMemoryProfileRecordingEnable
 .bss.mMemoryProfileGettingStatus
                0x000000000001a631        0x1 /tmp/ccQ0GsXz.ltrans0.ltrans.o
                0x000000000001a631                mMemoryProfileGettingStatus
 *fill*         0x000000000001a632        0x6 
 .bss.mMemoryProfileContextPtr
                0x000000000001a638        0x8 /tmp/ccQ0GsXz.ltrans0.ltrans.o
                0x000000000001a638                mMemoryProfileContextPtr
 .bss.mCurrentImage
                0x000000000001a640        0x8 /tmp/ccQ0GsXz.ltrans0.ltrans.o
                0x000000000001a640                mCurrentImage
 .bss.gDxeCoreFileName
                0x000000000001a648        0x8 /tmp/ccQ0GsXz.ltrans0.ltrans.o
                0x000000000001a648                gDxeCoreFileName
 .bss.gST       0x000000000001a650        0x8 /tmp/ccQ0GsXz.ltrans0.ltrans.o
                0x000000000001a650                gST
 .bss.mAcpiTimerIoAddr.lto_priv.78
                0x000000000001a658        0x4 /tmp/ccQ0GsXz.ltrans0.ltrans.o
                0x000000000001a658                mAcpiTimerIoAddr.lto_priv.78
 .bss.mMaxNumberOfExtractHandler
                0x000000000001a65c        0x4 /tmp/ccQ0GsXz.ltrans0.ltrans.o
                0x000000000001a65c                mMaxNumberOfExtractHandler
 .bss.mExtractGetInfoHandlerTable
                0x000000000001a660        0x8 /tmp/ccQ0GsXz.ltrans0.ltrans.o
                0x000000000001a660                mExtractGetInfoHandlerTable
 .bss.mExtractDecodeHandlerTable
                0x000000000001a668        0x8 /tmp/ccQ0GsXz.ltrans0.ltrans.o
                0x000000000001a668                mExtractDecodeHandlerTable
 .bss.mDebugTable
                0x000000000001a670        0x8 /tmp/ccQ0GsXz.ltrans0.ltrans.o
                0x000000000001a670                mDebugTable
 .bss.mEfiCheckTimerEvent
                0x000000000001a678        0x8 /tmp/ccQ0GsXz.ltrans0.ltrans.o
                0x000000000001a678                mEfiCheckTimerEvent
 .bss.gIdleLoopEvent
                0x000000000001a680        0x8 /tmp/ccQ0GsXz.ltrans0.ltrans.o
                0x000000000001a680                gIdleLoopEvent
 *fill*         0x000000000001a688       0x18 
 .bss.gEventQueue
                0x000000000001a6a0      0x200 /tmp/ccQ0GsXz.ltrans0.ltrans.o
                0x000000000001a6a0                gEventQueue
 .bss.mProtectedImageRecordList.lto_priv.73
                0x000000000001a8a0       0x10 /tmp/ccQ0GsXz.ltrans0.ltrans.o
                0x000000000001a8a0                mProtectedImageRecordList.lto_priv.73
 .bss.gHobList  0x000000000001a8b0        0x8 /tmp/ccQ0GsXz.ltrans0.ltrans.o
                0x000000000001a8b0                gHobList
 .bss.gEfiFwVolBlockNotifyReg
                0x000000000001a8b8        0x8 /tmp/ccQ0GsXz.ltrans0.ltrans.o
                0x000000000001a8b8                gEfiFwVolBlockNotifyReg
 .bss.mNumberOfExtractHandler
                0x000000000001a8c0        0x4 /tmp/ccQ0GsXz.ltrans0.ltrans.o
                0x000000000001a8c0                mNumberOfExtractHandler
 *fill*         0x000000000001a8c4        0x4 
 .bss.mExtractHandlerGuidTable
                0x000000000001a8c8        0x8 /tmp/ccQ0GsXz.ltrans0.ltrans.o
                0x000000000001a8c8                mExtractHandlerGuidTable
 .bss.mSectionExtractionHandle
                0x000000000001a8d0        0x8 /tmp/ccQ0GsXz.ltrans0.ltrans.o
 .bss.mFwVolEventRegistration
                0x000000000001a8d8        0x8 /tmp/ccQ0GsXz.ltrans0.ltrans.o
                0x000000000001a8d8                mFwVolEventRegistration
 .bss.gBds      0x000000000001a8e0        0x8 /tmp/ccQ0GsXz.ltrans0.ltrans.o
 .bss.mDecompressHandle
                0x000000000001a8e8        0x8 /tmp/ccQ0GsXz.ltrans0.ltrans.o
 .bss.gLoadModuleAtFixAddressConfigurationTable
                0x000000000001a8f0       0x10 /tmp/ccQ0GsXz.ltrans0.ltrans.o
                0x000000000001a8f0                gLoadModuleAtFixAddressConfigurationTable
 .bss.gDxeCoreLoadedImage
                0x000000000001a900        0x8 /tmp/ccQ0GsXz.ltrans0.ltrans.o
                0x000000000001a900                gDxeCoreLoadedImage
 .bss.mDxeCodeMemoryRangeUsageBitMap
                0x000000000001a908        0x8 /tmp/ccQ0GsXz.ltrans1.ltrans.o
 .bss.gHandleDatabaseKey
                0x000000000001a910        0x8 /tmp/ccQ0GsXz.ltrans4.ltrans.o
                0x000000000001a910                gHandleDatabaseKey
 .bss.mMemoryMapKey
                0x000000000001a918        0x8 /tmp/ccQ0GsXz.ltrans5.ltrans.o
                0x000000000001a918                mMemoryMapKey
 .bss.mImageProtectionPolicy
                0x000000000001a920        0x4 /tmp/ccQ0GsXz.ltrans5.ltrans.o
                0x000000000001a920                mImageProtectionPolicy
 *fill*         0x000000000001a924        0x4 
 .bss.gDxeCoreST
                0x000000000001a928        0x8 /tmp/ccQ0GsXz.ltrans5.ltrans.o
                0x000000000001a928                gDxeCoreST
 .bss.gCpu      0x000000000001a930        0x8 /tmp/ccQ0GsXz.ltrans5.ltrans.o
                0x000000000001a930                gCpu
 .bss.gMemoryMapTerminated
                0x000000000001a938        0x1 /tmp/ccQ0GsXz.ltrans5.ltrans.o
                0x000000000001a938                gMemoryMapTerminated
 *fill*         0x000000000001a939        0x7 
 .bss.gTimer    0x000000000001a940        0x8 /tmp/ccQ0GsXz.ltrans5.ltrans.o
                0x000000000001a940                gTimer
 .bss.mReportStatusCodeLibStatusCodeProtocol
                0x000000000001a948        0x8 /tmp/ccQ0GsXz.ltrans5.ltrans.o
                0x000000000001a948                mReportStatusCodeLibStatusCodeProtocol
 .bss.gBS       0x000000000001a950        0x8 /tmp/ccQ0GsXz.ltrans5.ltrans.o
                0x000000000001a950                gBS
 .bss.mMaxTableEntries
                0x000000000001a958        0x8 /tmp/ccQ0GsXz.ltrans5.ltrans.o
                0x000000000001a958                mMaxTableEntries
 .bss.mDebugInfoTableHeader
                0x000000000001a960       0x10 /tmp/ccQ0GsXz.ltrans5.ltrans.o
                0x000000000001a960                mDebugInfoTableHeader
 .bss.gDxeCoreImageHandle
                0x000000000001a970        0x8 /tmp/ccQ0GsXz.ltrans5.ltrans.o
                0x000000000001a970                gDxeCoreImageHandle
 .bss.mGuardedMemoryMap
                0x000000000001a978        0x8 /tmp/ccQ0GsXz.ltrans6.ltrans.o
                0x000000000001a978                mGuardedMemoryMap
 .bss.mOnGuarding
                0x000000000001a980        0x1 /tmp/ccQ0GsXz.ltrans7.ltrans.o
                0x000000000001a980                mOnGuarding
 *fill*         0x000000000001a981        0x7 
 .bss.mPcd      0x000000000001a988        0x8 /tmp/ccQ0GsXz.ltrans10.ltrans.o
 .bss.mPropertiesTableEnable
                0x000000000001a990        0x1 /tmp/ccQ0GsXz.ltrans10.ltrans.o
 *fill*         0x000000000001a991        0x7 
 .bss.mMemoryAttributesTable
                0x000000000001a998        0x8 /tmp/ccQ0GsXz.ltrans10.ltrans.o
 .bss.mMemoryAttributesTableReadyToBoot
                0x000000000001a9a0        0x1 /tmp/ccQ0GsXz.ltrans10.ltrans.o
 *fill*         0x000000000001a9a1        0x7 
 .bss.mFreeMapStack
                0x000000000001a9a8        0x8 /tmp/ccQ0GsXz.ltrans12.ltrans.o
 .bss.gLoadFixedAddressCodeMemoryReady
                0x000000000001a9b0        0x1 /tmp/ccQ0GsXz.ltrans12.ltrans.o
                0x000000000001a9b0                gLoadFixedAddressCodeMemoryReady
 .bss.mMemoryTypeInformationInitialized
                0x000000000001a9b1        0x1 /tmp/ccQ0GsXz.ltrans12.ltrans.o
 *fill*         0x000000000001a9b2        0xe 
 .bss.mMapStack
                0x000000000001a9c0      0x180 /tmp/ccQ0GsXz.ltrans12.ltrans.o
 .bss.mMapDepth
                0x000000000001ab40        0x8 /tmp/ccQ0GsXz.ltrans12.ltrans.o
 .bss.gEventPending
                0x000000000001ab48        0x8 /tmp/ccQ0GsXz.ltrans13.ltrans.o
                0x000000000001ab48                gEventPending
 .bss.mDepexEvaluationStackEnd
                0x000000000001ab50        0x8 /tmp/ccQ0GsXz.ltrans13.ltrans.o
 .bss.mDepexEvaluationStackPointer
                0x000000000001ab58        0x8 /tmp/ccQ0GsXz.ltrans13.ltrans.o
 .bss.mDepexEvaluationStack
                0x000000000001ab60        0x8 /tmp/ccQ0GsXz.ltrans13.ltrans.o
 .bss.gDispatcherRunning
                0x000000000001ab68        0x1 /tmp/ccQ0GsXz.ltrans13.ltrans.o
 *fill*         0x000000000001ab69        0x7 
 .bss.mFvDevicePath
                0x000000000001ab70       0x18 /tmp/ccQ0GsXz.ltrans16.ltrans.o
                0x000000000001ab70                mFvDevicePath
 .bss.mEfiLocateHandleRequest
                0x000000000001ab88        0x8 /tmp/ccQ0GsXz.ltrans17.ltrans.o
 .bss.mEfiSystemTime
                0x000000000001ab90        0x8 /tmp/ccQ0GsXz.ltrans18.ltrans.o
 .bss.mSystemTableAllocateSize
                0x000000000001ab98        0x8 /tmp/ccQ0GsXz.ltrans21.ltrans.o

.eh_frame       0x000000000001abc0        0x0
 *(.eh_frame)
 .eh_frame      0x000000000001abc0        0x0 DxePcdLib.obj (symbol from plugin)

.dynbss         0x000000000001abc0        0x0
 .dynbss        0x000000000001abc0        0x0 DxePcdLib.obj (symbol from plugin)

.gnu.version_d  0x000000000001abc0        0x0
 .gnu.version_d
                0x000000000001abc0        0x0 DxePcdLib.obj (symbol from plugin)

.gnu.version    0x000000000001abc0        0x0
 .gnu.version   0x000000000001abc0        0x0 DxePcdLib.obj (symbol from plugin)

.gnu.version_r  0x000000000001abc0        0x0
 .gnu.version_r
                0x000000000001abc0        0x0 DxePcdLib.obj (symbol from plugin)

.rela           0x000000000001abc0     0x1770
 *(.rela .rela.*)
 .rela.plt      0x000000000001abc0        0x0 DxePcdLib.obj (symbol from plugin)
 .rela.got      0x000000000001abc0        0x0 DxePcdLib.obj (symbol from plugin)
 .rela.bss      0x000000000001abc0        0x0 DxePcdLib.obj (symbol from plugin)
 .rela.ifunc    0x000000000001abc0        0x0 DxePcdLib.obj (symbol from plugin)
 .rela.text     0x000000000001abc0        0x0 DxePcdLib.obj (symbol from plugin)
 .rela.text.DxeMain
                0x000000000001abc0        0x0 DxePcdLib.obj (symbol from plugin)
 .rela.data.rel.local.mImageQueue
                0x000000000001abc0       0x30 DxePcdLib.obj (symbol from plugin)
 .rela.data.rel.local.mDxeServices
                0x000000000001abf0      0x1b0 DxePcdLib.obj (symbol from plugin)
 .rela.data.rel.local.mBootServices
                0x000000000001ada0      0x408 DxePcdLib.obj (symbol from plugin)
 .rela.data.rel.local.mMemoryProfileContext
                0x000000000001b1a8       0x18 DxePcdLib.obj (symbol from plugin)
 .rela.data.rel.local.mLoadPe32PrivateData
                0x000000000001b1c0       0x30 DxePcdLib.obj (symbol from plugin)
 .rela.data.rel.local.mGcdIoSpaceMap
                0x000000000001b1f0       0x30 DxePcdLib.obj (symbol from plugin)
 .rela.data.rel.local.mProfileProtocol
                0x000000000001b220       0x90 DxePcdLib.obj (symbol from plugin)
 .rela.data.rel.local.mOptionalProtocols
                0x000000000001b2b0       0x60 DxePcdLib.obj (symbol from plugin)
 .rela.data.rel.local.mCustomGuidedSectionExtractionProtocol
                0x000000000001b310       0x18 DxePcdLib.obj (symbol from plugin)
 .rela.data.rel.ro.local.mMissingProtocols
                0x000000000001b328      0x288 DxePcdLib.obj (symbol from plugin)
 .rela.data.rel.local.mDiscoveredList
                0x000000000001b5b0       0x30 DxePcdLib.obj (symbol from plugin)
 .rela.data.rel.local.mArchProtocols
                0x000000000001b5e0      0x1e0 DxePcdLib.obj (symbol from plugin)
 .rela.data.rel.local.gEfiDecompress
                0x000000000001b7c0       0x30 DxePcdLib.obj (symbol from plugin)
 .rela.data.rel.ro.local.gDxeCoreDS
                0x000000000001b7f0        0x0 DxePcdLib.obj (symbol from plugin)
 .rela.data.rel.local.gDxeCoreRT
                0x000000000001b7f0       0x18 DxePcdLib.obj (symbol from plugin)
 .rela.data.rel.local.mEfiRuntimeServicesTableTemplate
                0x000000000001b808      0x150 DxePcdLib.obj (symbol from plugin)
 .rela.data.rel.local.mEfiSystemTableTemplate
                0x000000000001b958       0x18 DxePcdLib.obj (symbol from plugin)
 .rela.text.CoreLoadImageCommon.part.1.lto_priv.79
                0x000000000001b970        0x0 DxePcdLib.obj (symbol from plugin)
 .rela.text.PeCoffLoaderGetImageInfo.part.0.lto_priv.77
                0x000000000001b970        0x0 DxePcdLib.obj (symbol from plugin)
 .rela.text.PerformanceMeasurementEnabled
                0x000000000001b970        0x0 DxePcdLib.obj (symbol from plugin)
 .rela.text.EfiCreateProtocolNotifyEvent
                0x000000000001b970        0x0 DxePcdLib.obj (symbol from plugin)
 .rela.text.InternalAllocatePool
                0x000000000001b970        0x0 DxePcdLib.obj (symbol from plugin)
 .rela.text.ReallocatePool
                0x000000000001b970        0x0 DxePcdLib.obj (symbol from plugin)
 .rela.text.ReallocateExtractHandlerTable
                0x000000000001b970        0x0 DxePcdLib.obj (symbol from plugin)
 .rela.text.CoreGetMemoryMap
                0x000000000001b970        0x0 DxePcdLib.obj (symbol from plugin)
 .rela.text.CoreUpdateProfileAllocate
                0x000000000001b970        0x0 DxePcdLib.obj (symbol from plugin)
 .rela.text.UnregisterMemoryProfileImage
                0x000000000001b970        0x0 DxePcdLib.obj (symbol from plugin)
 .rela.text.BuildDriverInfo
                0x000000000001b970        0x0 DxePcdLib.obj (symbol from plugin)
 .rela.text.RegisterMemoryProfileImage
                0x000000000001b970        0x0 DxePcdLib.obj (symbol from plugin)
 .rela.text.CoreConvertPages
                0x000000000001b970        0x0 DxePcdLib.obj (symbol from plugin)
 .rela.text.CoreInternalAllocatePages.part.3.lto_priv.62
                0x000000000001b970        0x0 DxePcdLib.obj (symbol from plugin)
 .rela.text.CoreAllocatePages
                0x000000000001b970        0x0 DxePcdLib.obj (symbol from plugin)
 .rela.text.CoreFreePages
                0x000000000001b970        0x0 DxePcdLib.obj (symbol from plugin)
 .rela.text.CoreMergeGcdMapEntry
                0x000000000001b970        0x0 DxePcdLib.obj (symbol from plugin)
 .rela.text.CoreProtocolsPerHandle
                0x000000000001b970        0x0 DxePcdLib.obj (symbol from plugin)
 .rela.text.CoreGetProtocolInterface
                0x000000000001b970        0x0 DxePcdLib.obj (symbol from plugin)
 .rela.text.CoreOpenProtocolInformation
                0x000000000001b970        0x0 DxePcdLib.obj (symbol from plugin)
 .rela.text.CoreCloseProtocol
                0x000000000001b970        0x0 DxePcdLib.obj (symbol from plugin)
 .rela.text.CoreOpenProtocol
                0x000000000001b970        0x0 DxePcdLib.obj (symbol from plugin)
 .rela.text.CoreHandleProtocol
                0x000000000001b970        0x0 DxePcdLib.obj (symbol from plugin)
 .rela.text.CoreCleanupGcdMapEntry
                0x000000000001b970        0x0 DxePcdLib.obj (symbol from plugin)
 .rela.text.CoreAllocateGcdMapEntry
                0x000000000001b970        0x0 DxePcdLib.obj (symbol from plugin)
 .rela.text.CoreReleaseGcdMemoryLock
                0x000000000001b970        0x0 DxePcdLib.obj (symbol from plugin)
 .rela.text.CoreAcquireGcdMemoryLock
                0x000000000001b970        0x0 DxePcdLib.obj (symbol from plugin)
 .rela.text.CoreDumpGcdIoSpaceMap
                0x000000000001b970        0x0 DxePcdLib.obj (symbol from plugin)
 .rela.text.CoreDumpGcdMemorySpaceMap
                0x000000000001b970        0x0 DxePcdLib.obj (symbol from plugin)
 .rela.text.CoreConvertSpace
                0x000000000001b970        0x0 DxePcdLib.obj (symbol from plugin)
 .rela.text.CoreInstallProtocolInterfaceNotify.part.3.lto_priv.56
                0x000000000001b970        0x0 DxePcdLib.obj (symbol from plugin)
 .rela.text.CoreDisconnectControllersUsingProtocolInterface
                0x000000000001b970        0x0 DxePcdLib.obj (symbol from plugin)
 .rela.text.CoreUninstallProtocolInterface
                0x000000000001b970        0x0 DxePcdLib.obj (symbol from plugin)
 .rela.text.CoreInstallMultipleProtocolInterfaces
                0x000000000001b970        0x0 DxePcdLib.obj (symbol from plugin)
 .rela.data.rel.local.gHandleList
                0x000000000001b970       0x30 DxePcdLib.obj (symbol from plugin)
 .rela.text.CoreFindFreePagesI.part.0.constprop.44
                0x000000000001b9a0        0x0 DxePcdLib.obj (symbol from plugin)
 .rela.text.BasePrintLibSPrint.constprop.47
                0x000000000001b9a0        0x0 DxePcdLib.obj (symbol from plugin)
 .rela.text.FindFreePages.constprop.41
                0x000000000001b9a0        0x0 DxePcdLib.obj (symbol from plugin)
 .rela.text.CoreAllocatePoolPages.constprop.42
                0x000000000001b9a0        0x0 DxePcdLib.obj (symbol from plugin)
 .rela.text.CoreAllocatePoolPagesI.constprop.40
                0x000000000001b9a0        0x0 DxePcdLib.obj (symbol from plugin)
 .rela.text.CoreNewDebugImageInfoEntry.constprop.30
                0x000000000001b9a0        0x0 DxePcdLib.obj (symbol from plugin)
 .rela.text.ReportStatusCodeEx.constprop.29
                0x000000000001b9a0        0x0 DxePcdLib.obj (symbol from plugin)
 .rela.text.FindChildNode.constprop.1
                0x000000000001b9a0        0x0 DxePcdLib.obj (symbol from plugin)
 .rela.text.CoreExitBootServices
                0x000000000001b9a0        0x0 DxePcdLib.obj (symbol from plugin)
 .rela.data.rel.local.gRuntimeTemplate
                0x000000000001b9a0       0x60 DxePcdLib.obj (symbol from plugin)
 .rela.data.rel.local.gRuntime
                0x000000000001ba00       0x18 DxePcdLib.obj (symbol from plugin)
 .rela.data.rel.local.mGcdMemorySpaceMap
                0x000000000001ba18       0x30 DxePcdLib.obj (symbol from plugin)
 .rela.data.rel.local.gMemoryMap
                0x000000000001ba48       0x30 DxePcdLib.obj (symbol from plugin)
 .rela.text.FvReadFileSection
                0x000000000001ba78        0x0 DxePcdLib.obj (symbol from plugin)
 .rela.text.GetFwVolHeader
                0x000000000001ba78        0x0 DxePcdLib.obj (symbol from plugin)
 .rela.text.ProduceFVBProtocolOnBuffer
                0x000000000001ba78        0x0 DxePcdLib.obj (symbol from plugin)
 .rela.text.AdjustMemoryF.part.2.lto_priv.60
                0x000000000001ba78        0x0 DxePcdLib.obj (symbol from plugin)
 .rela.text.UnsetGuardForMemory.part.1.lto_priv.61
                0x000000000001ba78        0x0 DxePcdLib.obj (symbol from plugin)
 .rela.data.rel.local.mFwVolBlock
                0x000000000001ba78       0xa8 DxePcdLib.obj (symbol from plugin)
 .rela.data.rel.local.mStreamRoot
                0x000000000001bb20       0x30 DxePcdLib.obj (symbol from plugin)
 .rela.text.CoreUpdateProfileFree
                0x000000000001bb50        0x0 DxePcdLib.obj (symbol from plugin)
 .rela.text.CoreUpdateProfile
                0x000000000001bb50        0x0 DxePcdLib.obj (symbol from plugin)
 .rela.text.CoreConnectController
                0x000000000001bb50        0x0 DxePcdLib.obj (symbol from plugin)
 .rela.text.DisableNullDetectionAtTheEndOfDxe
                0x000000000001bb50        0x0 DxePcdLib.obj (symbol from plugin)
 .rela.text.CoreReleaseLock
                0x000000000001bb50        0x0 DxePcdLib.obj (symbol from plugin)
 .rela.text.CoreAcquireLock
                0x000000000001bb50        0x0 DxePcdLib.obj (symbol from plugin)
 .rela.text.CoreAcquireLockOrFail
                0x000000000001bb50        0x0 DxePcdLib.obj (symbol from plugin)
 .rela.text.ApplyMemoryProtectionPolicy
                0x000000000001bb50        0x0 DxePcdLib.obj (symbol from plugin)
 .rela.text.MemoryProtectionCpuArchProtocolNotify
                0x000000000001bb50        0x0 DxePcdLib.obj (symbol from plugin)
 .rela.text.CustomGuidedSectionExtract
                0x000000000001bb50        0x0 DxePcdLib.obj (symbol from plugin)
 .rela.text.CoreUnloadAndCloseImage
                0x000000000001bb50        0x0 DxePcdLib.obj (symbol from plugin)
 .rela.text.CoreExit
                0x000000000001bb50        0x0 DxePcdLib.obj (symbol from plugin)
 .rela.text.CoreStartImage
                0x000000000001bb50        0x0 DxePcdLib.obj (symbol from plugin)
 .rela.text.CloseSectionStream
                0x000000000001bb50        0x0 DxePcdLib.obj (symbol from plugin)
 .rela.text.SetUefiImageMemoryAttributes
                0x000000000001bb50        0x0 DxePcdLib.obj (symbol from plugin)
 .rela.text.CoreGetMemoryMapWithSeparatedImageSection
                0x000000000001bb50        0x0 DxePcdLib.obj (symbol from plugin)
 .rela.text.InstallMemoryAttributesTable
                0x000000000001bb50        0x0 DxePcdLib.obj (symbol from plugin)
 .rela.data.rel.local.mImagePropertiesPrivateData
                0x000000000001bb50       0x30 DxePcdLib.obj (symbol from plugin)
 .rela.text.LzmaUefiDecompress
                0x000000000001bb80        0x0 DxePcdLib.obj (symbol from plugin)
 .rela.text.CoreAddRange
                0x000000000001bb80        0x0 DxePcdLib.obj (symbol from plugin)
 .rela.text.CoreFreePoolI
                0x000000000001bb80        0x0 DxePcdLib.obj (symbol from plugin)
 .rela.text.CoreAllocatePoolI
                0x000000000001bb80        0x0 DxePcdLib.obj (symbol from plugin)
 .rela.data.rel.local.mFreeMemoryMapEntryList
                0x000000000001bb80       0x30 DxePcdLib.obj (symbol from plugin)
 .rela.text.CoreFvToDevicePath
                0x000000000001bbb0        0x0 DxePcdLib.obj (symbol from plugin)
 .rela.text.CoreInsertOnScheduledQueueWhileProcessingBeforeAndAfter
                0x000000000001bbb0        0x0 DxePcdLib.obj (symbol from plugin)
 .rela.text.CoreTrust
                0x000000000001bbb0        0x0 DxePcdLib.obj (symbol from plugin)
 .rela.text.CoreCloseEvent
                0x000000000001bbb0        0x0 DxePcdLib.obj (symbol from plugin)
 .rela.text.CoreDispatcher
                0x000000000001bbb0        0x0 DxePcdLib.obj (symbol from plugin)
 .rela.data.rel.local.gEventSignalQueue
                0x000000000001bbb0       0x30 DxePcdLib.obj (symbol from plugin)
 .rela.data.rel.local.mProtocolDatabase
                0x000000000001bbe0       0x30 DxePcdLib.obj (symbol from plugin)
 .rela.data.rel.local.mPoolHeadList
                0x000000000001bc10       0x30 DxePcdLib.obj (symbol from plugin)
 .rela.text.VerifyGuidedSectionGuid
                0x000000000001bc40        0x0 DxePcdLib.obj (symbol from plugin)
 .rela.text.LzmaGuidedSectionGetInfo
                0x000000000001bc40        0x0 DxePcdLib.obj (symbol from plugin)
 .rela.text.OpenSectionStreamEx
                0x000000000001bc40        0x0 DxePcdLib.obj (symbol from plugin)
 .rela.text.CreateChildNode
                0x000000000001bc40        0x0 DxePcdLib.obj (symbol from plugin)
 .rela.text.GenericProtocolNotify
                0x000000000001bc40        0x0 DxePcdLib.obj (symbol from plugin)
 .rela.text.CoreNotifyOnProtocolEntryTable
                0x000000000001bc40        0x0 DxePcdLib.obj (symbol from plugin)
 .rela.text.CoreFwVolEventProtocolNotify
                0x000000000001bc40        0x0 DxePcdLib.obj (symbol from plugin)
 .rela.data.rel.local.mFvHandleList
                0x000000000001bc40       0x30 DxePcdLib.obj (symbol from plugin)
 .rela.data.rel.local.mScheduledQueue
                0x000000000001bc70       0x30 DxePcdLib.obj (symbol from plugin)
 .rela.data.rel.local.mFvDevice
                0x000000000001bca0       0xc0 DxePcdLib.obj (symbol from plugin)
 .rela.data.rel.local.mEfiTimerList
                0x000000000001bd60       0x30 DxePcdLib.obj (symbol from plugin)
 .rela.data.rel.ro.local.mStatusString
                0x000000000001bd90      0x3a8 DxePcdLib.obj (symbol from plugin)
 .rela.data.rel.ro.local.mExceptionNameStr
                0x000000000001c138      0x1f8 DxePcdLib.obj (symbol from plugin)

.hii
 *(.hii)

.build-id       0x000000000001c330       0x24
 *(.note.gnu.build-id)
 .note.gnu.build-id
                0x000000000001c330       0x24 DxePcdLib.obj (symbol from plugin)

/DISCARD/
 *(.note.GNU-stack)
 *(.gnu_debuglink)
 *(.interp)
 *(.dynsym)
 *(.dynstr)
 *(.dynamic)
 *(.hash .gnu.hash)
 *(.comment)
 *(COMMON)
OUTPUT(/root/edk2/Build/OvmfX64/RELEASE_GCC5/X64/MdeModulePkg/Core/Dxe/DxeMain/DEBUG/DxeCore.dll elf64-x86-64)

.debug_info     0x0000000000000000    0x47756
 .debug_info    0x0000000000000000     0xa643 /tmp/ccQ0GsXz.ltrans0.ltrans.o
 .debug_info    0x000000000000a643     0x5451 /tmp/ccQ0GsXz.ltrans1.ltrans.o
 .debug_info    0x000000000000fa94     0x3baa /tmp/ccQ0GsXz.ltrans2.ltrans.o
 .debug_info    0x000000000001363e     0x4627 /tmp/ccQ0GsXz.ltrans3.ltrans.o
 .debug_info    0x0000000000017c65     0x29a9 /tmp/ccQ0GsXz.ltrans4.ltrans.o
 .debug_info    0x000000000001a60e     0x5a6b /tmp/ccQ0GsXz.ltrans5.ltrans.o
 .debug_info    0x0000000000020079     0x2aee /tmp/ccQ0GsXz.ltrans6.ltrans.o
 .debug_info    0x0000000000022b67     0x3e5e /tmp/ccQ0GsXz.ltrans7.ltrans.o
 .debug_info    0x00000000000269c5     0x3cfc /tmp/ccQ0GsXz.ltrans8.ltrans.o
 .debug_info    0x000000000002a6c1     0x3ce0 /tmp/ccQ0GsXz.ltrans9.ltrans.o
 .debug_info    0x000000000002e3a1     0x4467 /tmp/ccQ0GsXz.ltrans10.ltrans.o
 .debug_info    0x0000000000032808     0x11a6 /tmp/ccQ0GsXz.ltrans11.ltrans.o
 .debug_info    0x00000000000339ae     0x1c49 /tmp/ccQ0GsXz.ltrans12.ltrans.o
 .debug_info    0x00000000000355f7     0x282f /tmp/ccQ0GsXz.ltrans13.ltrans.o
 .debug_info    0x0000000000037e26     0x22d9 /tmp/ccQ0GsXz.ltrans14.ltrans.o
 .debug_info    0x000000000003a0ff     0x295a /tmp/ccQ0GsXz.ltrans15.ltrans.o
 .debug_info    0x000000000003ca59     0x274c /tmp/ccQ0GsXz.ltrans16.ltrans.o
 .debug_info    0x000000000003f1a5     0x1efe /tmp/ccQ0GsXz.ltrans17.ltrans.o
 .debug_info    0x00000000000410a3     0x215f /tmp/ccQ0GsXz.ltrans18.ltrans.o
 .debug_info    0x0000000000043202      0xa64 /tmp/ccQ0GsXz.ltrans19.ltrans.o
 .debug_info    0x0000000000043c66     0x32e0 /tmp/ccQ0GsXz.ltrans20.ltrans.o
 .debug_info    0x0000000000046f46      0x810 /tmp/ccQ0GsXz.ltrans21.ltrans.o

.debug_abbrev   0x0000000000000000     0x5a58
 .debug_abbrev  0x0000000000000000      0x547 /tmp/ccQ0GsXz.ltrans0.ltrans.o
 .debug_abbrev  0x0000000000000547      0x3d8 /tmp/ccQ0GsXz.ltrans1.ltrans.o
 .debug_abbrev  0x000000000000091f      0x65e /tmp/ccQ0GsXz.ltrans2.ltrans.o
 .debug_abbrev  0x0000000000000f7d      0x463 /tmp/ccQ0GsXz.ltrans3.ltrans.o
 .debug_abbrev  0x00000000000013e0      0x41c /tmp/ccQ0GsXz.ltrans4.ltrans.o
 .debug_abbrev  0x00000000000017fc      0x4d9 /tmp/ccQ0GsXz.ltrans5.ltrans.o
 .debug_abbrev  0x0000000000001cd5      0x431 /tmp/ccQ0GsXz.ltrans6.ltrans.o
 .debug_abbrev  0x0000000000002106      0x4a9 /tmp/ccQ0GsXz.ltrans7.ltrans.o
 .debug_abbrev  0x00000000000025af      0x47a /tmp/ccQ0GsXz.ltrans8.ltrans.o
 .debug_abbrev  0x0000000000002a29      0x489 /tmp/ccQ0GsXz.ltrans9.ltrans.o
 .debug_abbrev  0x0000000000002eb2      0x4fe /tmp/ccQ0GsXz.ltrans10.ltrans.o
 .debug_abbrev  0x00000000000033b0      0x33e /tmp/ccQ0GsXz.ltrans11.ltrans.o
 .debug_abbrev  0x00000000000036ee      0x3f5 /tmp/ccQ0GsXz.ltrans12.ltrans.o
 .debug_abbrev  0x0000000000003ae3      0x41b /tmp/ccQ0GsXz.ltrans13.ltrans.o
 .debug_abbrev  0x0000000000003efe      0x3a3 /tmp/ccQ0GsXz.ltrans14.ltrans.o
 .debug_abbrev  0x00000000000042a1      0x380 /tmp/ccQ0GsXz.ltrans15.ltrans.o
 .debug_abbrev  0x0000000000004621      0x3ce /tmp/ccQ0GsXz.ltrans16.ltrans.o
 .debug_abbrev  0x00000000000049ef      0x426 /tmp/ccQ0GsXz.ltrans17.ltrans.o
 .debug_abbrev  0x0000000000004e15      0x3fb /tmp/ccQ0GsXz.ltrans18.ltrans.o
 .debug_abbrev  0x0000000000005210      0x1bd /tmp/ccQ0GsXz.ltrans19.ltrans.o
 .debug_abbrev  0x00000000000053cd      0x478 /tmp/ccQ0GsXz.ltrans20.ltrans.o
 .debug_abbrev  0x0000000000005845      0x213 /tmp/ccQ0GsXz.ltrans21.ltrans.o

.debug_loc      0x0000000000000000    0x31520
 .debug_loc     0x0000000000000000     0x332b /tmp/ccQ0GsXz.ltrans0.ltrans.o
 .debug_loc     0x000000000000332b     0x2cfe /tmp/ccQ0GsXz.ltrans1.ltrans.o
 .debug_loc     0x0000000000006029     0x32cb /tmp/ccQ0GsXz.ltrans2.ltrans.o
 .debug_loc     0x00000000000092f4     0x26c0 /tmp/ccQ0GsXz.ltrans3.ltrans.o
 .debug_loc     0x000000000000b9b4     0x3842 /tmp/ccQ0GsXz.ltrans4.ltrans.o
 .debug_loc     0x000000000000f1f6     0x293a /tmp/ccQ0GsXz.ltrans5.ltrans.o
 .debug_loc     0x0000000000011b30     0x2a7c /tmp/ccQ0GsXz.ltrans6.ltrans.o
 .debug_loc     0x00000000000145ac     0x2525 /tmp/ccQ0GsXz.ltrans7.ltrans.o
 .debug_loc     0x0000000000016ad1     0x1c96 /tmp/ccQ0GsXz.ltrans8.ltrans.o
 .debug_loc     0x0000000000018767     0x1f01 /tmp/ccQ0GsXz.ltrans9.ltrans.o
 .debug_loc     0x000000000001a668     0x1f4b /tmp/ccQ0GsXz.ltrans10.ltrans.o
 .debug_loc     0x000000000001c5b3     0x356b /tmp/ccQ0GsXz.ltrans11.ltrans.o
 .debug_loc     0x000000000001fb1e     0x2158 /tmp/ccQ0GsXz.ltrans12.ltrans.o
 .debug_loc     0x0000000000021c76     0x1ec4 /tmp/ccQ0GsXz.ltrans13.ltrans.o
 .debug_loc     0x0000000000023b3a     0x2adf /tmp/ccQ0GsXz.ltrans14.ltrans.o
 .debug_loc     0x0000000000026619     0x2872 /tmp/ccQ0GsXz.ltrans15.ltrans.o
 .debug_loc     0x0000000000028e8b     0x141d /tmp/ccQ0GsXz.ltrans16.ltrans.o
 .debug_loc     0x000000000002a2a8     0x2b6a /tmp/ccQ0GsXz.ltrans17.ltrans.o
 .debug_loc     0x000000000002ce12     0x1c3c /tmp/ccQ0GsXz.ltrans18.ltrans.o
 .debug_loc     0x000000000002ea4e     0x1684 /tmp/ccQ0GsXz.ltrans19.ltrans.o
 .debug_loc     0x00000000000300d2      0xe41 /tmp/ccQ0GsXz.ltrans20.ltrans.o
 .debug_loc     0x0000000000030f13      0x60d /tmp/ccQ0GsXz.ltrans21.ltrans.o

.debug_aranges  0x0000000000000000     0x1530
 .debug_aranges
                0x0000000000000000       0x30 /tmp/ccQ0GsXz.ltrans0.ltrans.o
 .debug_aranges
                0x0000000000000030       0x30 /tmp/ccQ0GsXz.ltrans1.ltrans.o
 .debug_aranges
                0x0000000000000060      0x2f0 /tmp/ccQ0GsXz.ltrans2.ltrans.o
 .debug_aranges
                0x0000000000000350      0x120 /tmp/ccQ0GsXz.ltrans3.ltrans.o
 .debug_aranges
                0x0000000000000470      0x180 /tmp/ccQ0GsXz.ltrans4.ltrans.o
 .debug_aranges
                0x00000000000005f0      0x140 /tmp/ccQ0GsXz.ltrans5.ltrans.o
 .debug_aranges
                0x0000000000000730      0x1b0 /tmp/ccQ0GsXz.ltrans6.ltrans.o
 .debug_aranges
                0x00000000000008e0      0x130 /tmp/ccQ0GsXz.ltrans7.ltrans.o
 .debug_aranges
                0x0000000000000a10       0xa0 /tmp/ccQ0GsXz.ltrans8.ltrans.o
 .debug_aranges
                0x0000000000000ab0       0xe0 /tmp/ccQ0GsXz.ltrans9.ltrans.o
 .debug_aranges
                0x0000000000000b90       0xf0 /tmp/ccQ0GsXz.ltrans10.ltrans.o
 .debug_aranges
                0x0000000000000c80       0x50 /tmp/ccQ0GsXz.ltrans11.ltrans.o
 .debug_aranges
                0x0000000000000cd0       0xf0 /tmp/ccQ0GsXz.ltrans12.ltrans.o
 .debug_aranges
                0x0000000000000dc0      0x180 /tmp/ccQ0GsXz.ltrans13.ltrans.o
 .debug_aranges
                0x0000000000000f40      0x170 /tmp/ccQ0GsXz.ltrans14.ltrans.o
 .debug_aranges
                0x00000000000010b0       0x90 /tmp/ccQ0GsXz.ltrans15.ltrans.o
 .debug_aranges
                0x0000000000001140       0x60 /tmp/ccQ0GsXz.ltrans16.ltrans.o
 .debug_aranges
                0x00000000000011a0      0x180 /tmp/ccQ0GsXz.ltrans17.ltrans.o
 .debug_aranges
                0x0000000000001320       0xa0 /tmp/ccQ0GsXz.ltrans18.ltrans.o
 .debug_aranges
                0x00000000000013c0       0x30 /tmp/ccQ0GsXz.ltrans19.ltrans.o
 .debug_aranges
                0x00000000000013f0       0xd0 /tmp/ccQ0GsXz.ltrans20.ltrans.o
 .debug_aranges
                0x00000000000014c0       0x70 /tmp/ccQ0GsXz.ltrans21.ltrans.o

.debug_ranges   0x0000000000000000     0x7530
 .debug_ranges  0x0000000000000000      0x830 /tmp/ccQ0GsXz.ltrans0.ltrans.o
 .debug_ranges  0x0000000000000830      0x7b0 /tmp/ccQ0GsXz.ltrans1.ltrans.o
 .debug_ranges  0x0000000000000fe0      0x550 /tmp/ccQ0GsXz.ltrans2.ltrans.o
 .debug_ranges  0x0000000000001530      0x390 /tmp/ccQ0GsXz.ltrans3.ltrans.o
 .debug_ranges  0x00000000000018c0      0x6e0 /tmp/ccQ0GsXz.ltrans4.ltrans.o
 .debug_ranges  0x0000000000001fa0      0x670 /tmp/ccQ0GsXz.ltrans5.ltrans.o
 .debug_ranges  0x0000000000002610      0x3b0 /tmp/ccQ0GsXz.ltrans6.ltrans.o
 .debug_ranges  0x00000000000029c0      0x4f0 /tmp/ccQ0GsXz.ltrans7.ltrans.o
 .debug_ranges  0x0000000000002eb0      0x3c0 /tmp/ccQ0GsXz.ltrans8.ltrans.o
 .debug_ranges  0x0000000000003270      0x310 /tmp/ccQ0GsXz.ltrans9.ltrans.o
 .debug_ranges  0x0000000000003580      0x520 /tmp/ccQ0GsXz.ltrans10.ltrans.o
 .debug_ranges  0x0000000000003aa0     0x1740 /tmp/ccQ0GsXz.ltrans11.ltrans.o
 .debug_ranges  0x00000000000051e0      0x3c0 /tmp/ccQ0GsXz.ltrans12.ltrans.o
 .debug_ranges  0x00000000000055a0      0x630 /tmp/ccQ0GsXz.ltrans13.ltrans.o
 .debug_ranges  0x0000000000005bd0      0x530 /tmp/ccQ0GsXz.ltrans14.ltrans.o
 .debug_ranges  0x0000000000006100      0x630 /tmp/ccQ0GsXz.ltrans15.ltrans.o
 .debug_ranges  0x0000000000006730      0x340 /tmp/ccQ0GsXz.ltrans16.ltrans.o
 .debug_ranges  0x0000000000006a70      0x290 /tmp/ccQ0GsXz.ltrans17.ltrans.o
 .debug_ranges  0x0000000000006d00      0x3b0 /tmp/ccQ0GsXz.ltrans18.ltrans.o
 .debug_ranges  0x00000000000070b0       0x50 /tmp/ccQ0GsXz.ltrans19.ltrans.o
 .debug_ranges  0x0000000000007100      0x390 /tmp/ccQ0GsXz.ltrans20.ltrans.o
 .debug_ranges  0x0000000000007490       0xa0 /tmp/ccQ0GsXz.ltrans21.ltrans.o

.debug_line     0x0000000000000000     0xc6db
 .debug_line    0x0000000000000000     0x15df /tmp/ccQ0GsXz.ltrans0.ltrans.o
 .debug_line    0x00000000000015df      0xce4 /tmp/ccQ0GsXz.ltrans1.ltrans.o
 .debug_line    0x00000000000022c3     0x10e3 /tmp/ccQ0GsXz.ltrans2.ltrans.o
 .debug_line    0x00000000000033a6      0x96f /tmp/ccQ0GsXz.ltrans3.ltrans.o
 .debug_line    0x0000000000003d15      0x88f /tmp/ccQ0GsXz.ltrans4.ltrans.o
 .debug_line    0x00000000000045a4      0xbcc /tmp/ccQ0GsXz.ltrans5.ltrans.o
 .debug_line    0x0000000000005170      0x971 /tmp/ccQ0GsXz.ltrans6.ltrans.o
 .debug_line    0x0000000000005ae1      0x79e /tmp/ccQ0GsXz.ltrans7.ltrans.o
 .debug_line    0x000000000000627f      0x8cf /tmp/ccQ0GsXz.ltrans8.ltrans.o
 .debug_line    0x0000000000006b4e      0x9d8 /tmp/ccQ0GsXz.ltrans9.ltrans.o
 .debug_line    0x0000000000007526      0x871 /tmp/ccQ0GsXz.ltrans10.ltrans.o
 .debug_line    0x0000000000007d97      0x412 /tmp/ccQ0GsXz.ltrans11.ltrans.o
 .debug_line    0x00000000000081a9      0x6d3 /tmp/ccQ0GsXz.ltrans12.ltrans.o
 .debug_line    0x000000000000887c      0xae3 /tmp/ccQ0GsXz.ltrans13.ltrans.o
 .debug_line    0x000000000000935f      0x64c /tmp/ccQ0GsXz.ltrans14.ltrans.o
 .debug_line    0x00000000000099ab      0x6cd /tmp/ccQ0GsXz.ltrans15.ltrans.o
 .debug_line    0x000000000000a078      0x808 /tmp/ccQ0GsXz.ltrans16.ltrans.o
 .debug_line    0x000000000000a880      0x7d1 /tmp/ccQ0GsXz.ltrans17.ltrans.o
 .debug_line    0x000000000000b051      0x6fd /tmp/ccQ0GsXz.ltrans18.ltrans.o
 .debug_line    0x000000000000b74e      0x378 /tmp/ccQ0GsXz.ltrans19.ltrans.o
 .debug_line    0x000000000000bac6      0x8b7 /tmp/ccQ0GsXz.ltrans20.ltrans.o
 .debug_line    0x000000000000c37d      0x35e /tmp/ccQ0GsXz.ltrans21.ltrans.o

.debug_str      0x0000000000000000     0xc100
 .debug_str     0x0000000000000000     0x4a0e /tmp/ccQ0GsXz.ltrans0.ltrans.o
                                       0x55b7 (size before relaxing)
 .debug_str     0x0000000000004a0e      0xc5a /tmp/ccQ0GsXz.ltrans1.ltrans.o
                                       0x2ddb (size before relaxing)
 .debug_str     0x0000000000005668      0x851 /tmp/ccQ0GsXz.ltrans2.ltrans.o
                                       0x1c40 (size before relaxing)
 .debug_str     0x0000000000005eb9      0x4ee /tmp/ccQ0GsXz.ltrans3.ltrans.o
                                       0x273f (size before relaxing)
 .debug_str     0x00000000000063a7      0x56e /tmp/ccQ0GsXz.ltrans4.ltrans.o
                                        0xd9e (size before relaxing)
 .debug_str     0x0000000000006915      0xe9b /tmp/ccQ0GsXz.ltrans5.ltrans.o
                                       0x2d54 (size before relaxing)
 .debug_str     0x00000000000077b0      0xa35 /tmp/ccQ0GsXz.ltrans6.ltrans.o
                                       0x130e (size before relaxing)
 .debug_str     0x00000000000081e5      0x37e /tmp/ccQ0GsXz.ltrans7.ltrans.o
                                       0x223a (size before relaxing)
 .debug_str     0x0000000000008563      0x765 /tmp/ccQ0GsXz.ltrans8.ltrans.o
                                       0x256f (size before relaxing)
 .debug_str     0x0000000000008cc8      0x3b3 /tmp/ccQ0GsXz.ltrans9.ltrans.o
                                       0x2059 (size before relaxing)
 .debug_str     0x000000000000907b      0xbbc /tmp/ccQ0GsXz.ltrans10.ltrans.o
                                       0x294f (size before relaxing)
 .debug_str     0x0000000000009c37      0x45c /tmp/ccQ0GsXz.ltrans11.ltrans.o
                                        0x6ed (size before relaxing)
 .debug_str     0x000000000000a093      0x430 /tmp/ccQ0GsXz.ltrans12.ltrans.o
                                        0xaa3 (size before relaxing)
 .debug_str     0x000000000000a4c3      0x519 /tmp/ccQ0GsXz.ltrans13.ltrans.o
                                       0x110b (size before relaxing)
 .debug_str     0x000000000000a9dc      0x437 /tmp/ccQ0GsXz.ltrans14.ltrans.o
                                        0xdcf (size before relaxing)
 .debug_str     0x000000000000ae13      0x2a9 /tmp/ccQ0GsXz.ltrans15.ltrans.o
                                       0x1abd (size before relaxing)
 .debug_str     0x000000000000b0bc      0x2f8 /tmp/ccQ0GsXz.ltrans16.ltrans.o
                                       0x14a9 (size before relaxing)
 .debug_str     0x000000000000b3b4      0x41f /tmp/ccQ0GsXz.ltrans17.ltrans.o
                                        0xc3a (size before relaxing)
 .debug_str     0x000000000000b7d3      0x288 /tmp/ccQ0GsXz.ltrans18.ltrans.o
                                        0xf73 (size before relaxing)
 .debug_str     0x000000000000ba5b      0x208 /tmp/ccQ0GsXz.ltrans19.ltrans.o
                                        0x5c4 (size before relaxing)
 .debug_str     0x000000000000bc63      0x388 /tmp/ccQ0GsXz.ltrans20.ltrans.o
                                       0x11f6 (size before relaxing)
 .debug_str     0x000000000000bfeb      0x115 /tmp/ccQ0GsXz.ltrans21.ltrans.o
                                        0x6d8 (size before relaxing)

.debug_frame    0x0000000000000000     0x4ce0
 .debug_frame   0x0000000000000000       0x60 /tmp/ccQ0GsXz.ltrans0.ltrans.o
 .debug_frame   0x0000000000000060      0x340 /tmp/ccQ0GsXz.ltrans1.ltrans.o
 .debug_frame   0x00000000000003a0      0x6e8 /tmp/ccQ0GsXz.ltrans2.ltrans.o
 .debug_frame   0x0000000000000a88      0x440 /tmp/ccQ0GsXz.ltrans3.ltrans.o
 .debug_frame   0x0000000000000ec8      0x630 /tmp/ccQ0GsXz.ltrans4.ltrans.o
 .debug_frame   0x00000000000014f8      0x448 /tmp/ccQ0GsXz.ltrans5.ltrans.o
 .debug_frame   0x0000000000001940      0x5a8 /tmp/ccQ0GsXz.ltrans6.ltrans.o
 .debug_frame   0x0000000000001ee8      0x480 /tmp/ccQ0GsXz.ltrans7.ltrans.o
 .debug_frame   0x0000000000002368      0x248 /tmp/ccQ0GsXz.ltrans8.ltrans.o
 .debug_frame   0x00000000000025b0      0x420 /tmp/ccQ0GsXz.ltrans9.ltrans.o
 .debug_frame   0x00000000000029d0      0x348 /tmp/ccQ0GsXz.ltrans10.ltrans.o
 .debug_frame   0x0000000000002d18      0x108 /tmp/ccQ0GsXz.ltrans11.ltrans.o
 .debug_frame   0x0000000000002e20      0x420 /tmp/ccQ0GsXz.ltrans12.ltrans.o
 .debug_frame   0x0000000000003240      0x568 /tmp/ccQ0GsXz.ltrans13.ltrans.o
 .debug_frame   0x00000000000037a8      0x490 /tmp/ccQ0GsXz.ltrans14.ltrans.o
 .debug_frame   0x0000000000003c38      0x338 /tmp/ccQ0GsXz.ltrans15.ltrans.o
 .debug_frame   0x0000000000003f70      0x1c8 /tmp/ccQ0GsXz.ltrans16.ltrans.o
 .debug_frame   0x0000000000004138      0x520 /tmp/ccQ0GsXz.ltrans17.ltrans.o
 .debug_frame   0x0000000000004658      0x258 /tmp/ccQ0GsXz.ltrans18.ltrans.o
 .debug_frame   0x00000000000048b0       0xe0 /tmp/ccQ0GsXz.ltrans19.ltrans.o
 .debug_frame   0x0000000000004990      0x210 /tmp/ccQ0GsXz.ltrans20.ltrans.o
 .debug_frame   0x0000000000004ba0      0x140 /tmp/ccQ0GsXz.ltrans21.ltrans.o
